ccollections
OrderedDict
p1
((lp2
(lp3
S'9091'
p4
aF208956.61092897638
aa(lp5
S'16001'
p6
aF375420.56414898514
aa(lp7
S'27089'
p8
aF3092888.8236187915
aa(lp9
S'19962'
p10
aF3282591.7888977318
aa(lp11
S'501'
p12
aF3560912.5767931761
aa(lp13
S'586'
p14
aF3977176.5132611208
aa(lp15
S'25976'
p16
aF4726866.0303513519
aa(lp17
S'879'
p18
aF4767960.8400136661
aa(lp19
S'4747'
p20
aF4786719.473498716
aa(lp21
S'25561'
p22
aF5599335.2983642947
aa(lp23
S'31426'
p24
aF5599838.5296151116
aa(lp25
S'17653'
p26
aF5684018.5927156173
aa(lp27
S'25591'
p28
aF5810138.1512759263
aa(lp29
S'31250'
p30
aF6101108.0347113796
aa(lp31
S'27185'
p32
aF6109410.0996888056
aa(lp33
S'20345'
p34
aF6495065.1836113874
aa(lp35
S'3987'
p36
aF6653025.4489506464
aa(lp37
S'219'
p38
aF7045362.0716807162
aa(lp39
S'572'
p40
aF7633326.1306815632
aa(lp41
S'3555'
p42
aF7659594.3256066116
aa(lp43
S'18062'
p44
aF7785406.359474849
aa(lp45
S'1245'
p46
aF7786587.8732942222
aa(lp47
S'22178'
p48
aF7849691.1288017556
aa(lp49
S'7493'
p50
aF7964322.5418170439
aa(lp51
S'27072'
p52
aF8632883.2421117928
aa(lp53
S'2057'
p54
aF9295465.8645703793
aa(lp55
S'183'
p56
aF9410984.4212677628
aa(lp57
S'3363'
p58
aF9667120.4016123656
aa(lp59
S'3310'
p60
aF9745503.3149274085
aa(lp61
S'2486'
p62
aF10641763.064561659
aa(lp63
S'3311'
p64
aF11092159.918103313
aa(lp65
S'2003'
p66
aF11158846.780066745
aa(lp67
S'31520'
p68
aF11165748.94339389
aa(lp69
S'25621'
p70
aF12120333.953410249
aa(lp71
S'8815'
p72
aF12299591.026960006
aa(lp73
S'2289'
p74
aF12630519.565293349
aa(lp75
S'19952'
p76
aF12692617.276247155
aa(lp77
S'11284'
p78
aF12892003.531577528
aa(lp79
S'598'
p80
aF12983806.573524114
aa(lp81
S'12225'
p82
aF13033595.804419598
aa(lp83
S'27255'
p84
aF13129167.171226563
aa(lp85
S'26320'
p86
aF13133132.472561991
aa(lp87
S'15629'
p88
aF13298673.62662469
aa(lp89
S'17683'
p90
aF13324002.249366848
aa(lp91
S'984'
p92
aF13478253.106164584
aa(lp93
S'17669'
p94
aF13535436.471631512
aa(lp95
S'23510'
p96
aF13685076.456470994
aa(lp97
S'20314'
p98
aF13798905.254099211
aa(lp99
S'17649'
p100
aF13818434.005698197
aa(lp101
S'1959'
p102
aF14140606.961079614
aa(lp103
S'2061'
p104
aF14325365.32622933
aa(lp105
S'1557'
p106
aF14617350.102421524
aa(lp107
S'9784'
p108
aF14768242.262587778
aa(lp109
S'233'
p110
aF15296047.192666151
aa(lp111
S'3723'
p112
aF15423442.550727757
aa(lp113
S'1076'
p114
aF15543460.699986093
aa(lp115
S'3423'
p116
aF15562814.122035557
aa(lp117
S'190'
p118
aF15625966.864193754
aa(lp119
S'9702'
p120
aF15895252.912607646
aa(lp121
S'22570'
p122
aF15933376.019662896
aa(lp123
S'30013'
p124
aF15955013.201312171
aa(lp125
S'8327'
p126
aF16065563.412147408
aa(lp127
S'607'
p128
aF16509050.333277192
aa(lp129
S'224'
p130
aF17075302.667498171
aa(lp131
S'11219'
p132
aF17175495.436571475
aa(lp133
S'3913'
p134
aF18260743.333785802
aa(lp135
S'26306'
p136
aF18484604.17356227
aa(lp137
S'25602'
p138
aF18676371.748238508
aa(lp139
S'10246'
p140
aF18907814.289444741
aa(lp141
S'234'
p142
aF19084297.08332039
aa(lp143
S'31159'
p144
aF19141882.5865082
aa(lp145
S'1422'
p146
aF19259156.007171318
aa(lp147
S'27147'
p148
aF19269285.043439616
aa(lp149
S'20865'
p150
aF19742490.107364159
aa(lp151
S'23731'
p152
aF19743195.585047502
aa(lp153
S'25233'
p154
aF19799326.501737263
aa(lp155
S'1855'
p156
aF19951091.611296874
aa(lp157
S'20016'
p158
aF20551655.686154194
aa(lp159
S'18044'
p160
aF20642225.086033534
aa(lp161
S'6811'
p162
aF20646324.162247937
aa(lp163
S'21232'
p164
aF20949735.539833277
aa(lp165
S'2406'
p166
aF20951672.214910898
aa(lp167
S'15511'
p168
aF21309103.473790001
aa(lp169
S'16533'
p170
aF21381646.64666697
aa(lp171
S'18056'
p172
aF21705650.798486415
aa(lp173
S'12442'
p174
aF21853669.12722417
aa(lp175
S'30324'
p176
aF22659717.294153124
aa(lp177
S'522'
p178
aF22755465.232280456
aa(lp179
S'16311'
p180
aF22796135.082375947
aa(lp181
S'508'
p182
aF22944811.52132532
aa(lp183
S'229'
p184
aF22981366.911302786
aa(lp185
S'31658'
p186
aF23015269.9218622
aa(lp187
S'32435'
p188
aF23211278.202907808
aa(lp189
S'23950'
p190
aF23557258.172334719
aa(lp191
S'22136'
p192
aF23681539.822964467
aa(lp193
S'9574'
p194
aF24025278.745039392
aa(lp195
S'21202'
p196
aF24255026.683453262
aa(lp197
S'31516'
p198
aF24326583.795834281
aa(lp199
S'15660'
p200
aF24492849.423230428
aa(lp201
S'20825'
p202
aF24620457.846437696
aa(lp203
S'16631'
p204
aF24666794.015705548
aa(lp205
S'2525'
p206
aF25001158.393355861
aa(lp207
S'12092'
p208
aF25148414.987908237
aa(lp209
S'2044'
p210
aF25373449.171768144
aa(lp211
S'3102'
p212
aF25421646.49697477
aa(lp213
S'31668'
p214
aF25508329.913868457
aa(lp215
S'21803'
p216
aF25738790.817059256
aa(lp217
S'3447'
p218
aF25766791.958900746
aa(lp219
S'608'
p220
aF25850620.579342443
aa(lp221
S'20004'
p222
aF26174420.429603744
aa(lp223
S'13224'
p224
aF26175639.593271695
aa(lp225
S'23729'
p226
aF26198706.649100356
aa(lp227
S'26048'
p228
aF26219718.719533555
aa(lp229
S'2040'
p230
aF26259674.333605286
aa(lp231
S'22809'
p232
aF26306863.050672229
aa(lp233
S'2004'
p234
aF26364596.200582456
aa(lp235
S'13003'
p236
aF26473896.017847933
aa(lp237
S'444'
p238
aF26599557.66117207
aa(lp239
S'23711'
p240
aF26615207.240579929
aa(lp241
S'25284'
p242
aF27122377.682913318
aa(lp243
S'455'
p244
aF27144599.897665095
aa(lp245
S'14295'
p246
aF27377215.829143751
aa(lp247
S'23563'
p248
aF27536541.948869895
aa(lp249
S'31955'
p250
aF27655162.509778962
aa(lp251
S'17848'
p252
aF27690807.533357352
aa(lp253
S'27175'
p254
aF27830326.200606488
aa(lp255
S'27911'
p256
aF27978424.056235053
aa(lp257
S'31318'
p258
aF29056926.544215821
aa(lp259
S'4262'
p260
aF29309144.874070838
aa(lp261
S'27073'
p262
aF29535782.360131804
aa(lp263
S'11452'
p264
aF29642612.186674595
aa(lp265
S'31135'
p266
aF29658041.083277661
aa(lp267
S'19684'
p268
aF29708680.292596981
aa(lp269
S'1832'
p270
aF29819054.831575084
aa(lp271
S'8465'
p272
aF29934581.605790287
aa(lp273
S'563'
p274
aF29985347.093958516
aa(lp275
S'25811'
p276
aF30080557.128857236
aa(lp277
S'2043'
p278
aF30428050.102142762
aa(lp279
S'32117'
p280
aF30891861.801739823
aa(lp281
S'18038'
p282
aF31045591.137377542
aa(lp283
S'17404'
p284
aF31140841.997036822
aa(lp285
S'3576'
p286
aF31398546.120651424
aa(lp287
S'32113'
p288
aF31453576.129961662
aa(lp289
S'12771'
p290
aF31538086.192688175
aa(lp291
S'691'
p292
aF31691786.9824696
aa(lp293
S'31179'
p294
aF31923054.706356466
aa(lp295
S'20827'
p296
aF32124438.58510432
aa(lp297
S'28682'
p298
aF32162213.133948136
aa(lp299
S'3993'
p300
aF32217611.465982821
aa(lp301
S'31276'
p302
aF32286463.12728896
aa(lp303
S'31298'
p304
aF32366001.84994854
aa(lp305
S'20859'
p306
aF32643418.05133339
aa(lp307
S'19548'
p308
aF33133452.879654311
aa(lp309
S'15626'
p310
aF33287003.200420137
aa(lp311
S'583'
p312
aF33332378.750453696
aa(lp313
S'235'
p314
aF33360637.381514151
aa(lp315
S'28667'
p316
aF33666060.468409263
aa(lp317
S'32111'
p318
aF34213924.0124401
aa(lp319
S'26372'
p320
aF34358964.326198019
aa(lp321
S'3337'
p322
aF34686304.568669721
aa(lp323
S'23513'
p324
aF34888436.56894581
aa(lp325
S'3120'
p326
aF35359198.454105541
aa(lp327
S'24613'
p328
aF35382932.644290932
aa(lp329
S'13241'
p330
aF35572943.374127306
aa(lp331
S'27245'
p332
aF36128669.180750266
aa(lp333
S'585'
p334
aF36324482.657122515
aa(lp335
S'421'
p336
aF37192138.972177923
aa(lp337
S'22135'
p338
aF37450599.853126712
aa(lp339
S'29003'
p340
aF37485486.904835805
aa(lp341
S'13240'
p342
aF37621781.104406424
aa(lp343
S'3997'
p344
aF37919571.23105818
aa(lp345
S'30544'
p346
aF38095737.524055831
aa(lp347
S'2533'
p348
aF38211347.48669479
aa(lp349
S'27115'
p350
aF38364922.150812291
aa(lp351
S'23101'
p352
aF38465582.637882829
aa(lp353
S'459'
p354
aF38482514.4905461
aa(lp355
S'30999'
p356
aF39085821.366854995
aa(lp357
S'13232'
p358
aF39258704.831102505
aa(lp359
S'1195'
p360
aF39906895.880400255
aa(lp361
S'656'
p362
aF40078271.377592489
aa(lp363
S'499'
p364
aF40211644.022430412
aa(lp365
S'16119'
p366
aF40347660.072142996
aa(lp367
S'24625'
p368
aF40349205.751354478
aa(lp369
S'20327'
p370
aF40439186.123970188
aa(lp371
S'17366'
p372
aF41448652.230303481
aa(lp373
S'23142'
p374
aF41552095.665746167
aa(lp375
S'31752'
p376
aF42485464.449388601
aa(lp377
S'12194'
p378
aF42867583.931364208
aa(lp379
S'2352'
p380
aF42931358.468054332
aa(lp381
S'25736'
p382
aF43477062.938619137
aa(lp383
S'4119'
p384
aF43496946.30215802
aa(lp385
S'2262'
p386
aF43808347.278560147
aa(lp387
S'22536'
p388
aF44489719.687585846
aa(lp389
S'20861'
p390
aF44848659.816597074
aa(lp391
S'24473'
p392
aF45054938.018586256
aa(lp393
S'17302'
p394
aF45237664.561957635
aa(lp395
S'568'
p396
aF45492160.633465007
aa(lp397
S'26912'
p398
aF45822345.133299649
aa(lp399
S'20869'
p400
aF45878225.054386325
aa(lp401
S'30655'
p402
aF45911032.816836037
aa(lp403
S'587'
p404
aF45986161.002274096
aa(lp405
S'20349'
p406
aF46642868.627853222
aa(lp407
S'12356'
p408
aF46989733.804491416
aa(lp409
S'464'
p410
aF47411199.31693998
aa(lp411
S'1565'
p412
aF47437564.274183318
aa(lp413
S'11561'
p414
aF47789023.016396657
aa(lp415
S'16461'
p416
aF48029588.488807343
aa(lp417
S'31975'
p418
aF48579413.223678477
aa(lp419
S'3655'
p420
aF48665016.18803779
aa(lp421
S'30552'
p422
aF48832144.305756271
aa(lp423
S'3396'
p424
aF48850287.40749
aa(lp425
S'19693'
p426
aF50380588.094632089
aa(lp427
S'16249'
p428
aF50443343.67394302
aa(lp429
S'4305'
p430
aF50495200.11805176
aa(lp431
S'31782'
p432
aF50973183.816153355
aa(lp433
S'18025'
p434
aF51035735.80646801
aa(lp435
S'11395'
p436
aF51701682.473390773
aa(lp437
S'21234'
p438
aF52786692.422788404
aa(lp439
S'17685'
p440
aF52969529.82752791
aa(lp441
S'32116'
p442
aF53114767.997724146
aa(lp443
S'31328'
p444
aF53116526.266047977
aa(lp445
S'2466'
p446
aF53372077.385376528
aa(lp447
S'16120'
p448
aF54008787.854199007
aa(lp449
S'10247'
p450
aF54349344.99854055
aa(lp451
S'30656'
p452
aF55914834.288494349
aa(lp453
S'11475'
p454
aF56448610.13885086
aa(lp455
S'11486'
p456
aF57383397.79233484
aa(lp457
S'27421'
p458
aF57847078.727768146
aa(lp459
S'25707'
p460
aF58034669.720169149
aa(lp461
S'2977'
p462
aF58112587.703352608
aa(lp463
S'26102'
p464
aF58324511.207805134
aa(lp465
S'184'
p466
aF58546733.015789226
aa(lp467
S'29047'
p468
aF58849063.49346672
aa(lp469
S'3421'
p470
aF58992312.447860725
aa(lp471
S'3415'
p472
aF59363239.380387872
aa(lp473
S'27116'
p474
aF59551564.316752836
aa(lp475
S'24445'
p476
aF60010743.808070756
aa(lp477
S'11569'
p478
aF60237072.061169133
aa(lp479
S'22119'
p480
aF60412386.93143189
aa(lp481
S'23031'
p482
aF60603536.275104791
aa(lp483
S'31324'
p484
aF61154507.914294325
aa(lp485
S'31818'
p486
aF61230304.358582683
aa(lp487
S'20506'
p488
aF61873456.580020368
aa(lp489
S'25615'
p490
aF62049111.933081284
aa(lp491
S'3812'
p492
aF62576218.800852232
aa(lp493
S'1296'
p494
aF62657686.658977851
aa(lp495
S'4286'
p496
aF62756687.207309648
aa(lp497
S'24517'
p498
aF63074076.218959145
aa(lp499
S'12221'
p500
aF63074942.781627662
aa(lp501
S'27333'
p502
aF64187191.225630589
aa(lp503
S'21080'
p504
aF64189897.587572366
aa(lp505
S'20445'
p506
aF64530267.862857312
aa(lp507
S'1978'
p508
aF64605751.883018963
aa(lp509
S'16248'
p510
aF64916363.706010103
aa(lp511
S'27327'
p512
aF65262112.621831492
aa(lp513
S'23075'
p514
aF65427637.734096229
aa(lp515
S'27258'
p516
aF65471106.383183226
aa(lp517
S'11101'
p518
aF65687479.255026355
aa(lp519
S'17686'
p520
aF66189418.48112312
aa(lp521
S'27435'
p522
aF66617547.946535803
aa(lp523
S'28880'
p524
aF66913812.633076772
aa(lp525
S'11450'
p526
aF67001907.316349022
aa(lp527
S'17291'
p528
aF67017558.688790694
aa(lp529
S'30543'
p530
aF67209641.160212085
aa(lp531
S'30537'
p532
aF68123940.715407759
aa(lp533
S'16220'
p534
aF68490990.986077428
aa(lp535
S'27105'
p536
aF68862676.404764622
aa(lp537
S'506'
p538
aF69039737.186963052
aa(lp539
S'12563'
p540
aF69687557.726271108
aa(lp541
S'30836'
p542
aF69935578.906561688
aa(lp543
S'16278'
p544
aF70191020.23048526
aa(lp545
S'24537'
p546
aF70222155.106731072
aa(lp547
S'30551'
p548
aF70682384.30194208
aa(lp549
S'30539'
p550
aF70714917.449291393
aa(lp551
S'3998'
p552
aF71084215.561316594
aa(lp553
S'32442'
p554
aF71475306.856750056
aa(lp555
S'29982'
p556
aF71663294.413262963
aa(lp557
S'17654'
p558
aF73206532.083794802
aa(lp559
S'24641'
p560
aF73404268.562588796
aa(lp561
S'3144'
p562
aF73665111.461803734
aa(lp563
S'23117'
p564
aF74099261.688784212
aa(lp565
S'17227'
p566
aF74541242.644120008
aa(lp567
S'25243'
p568
aF75100386.055812463
aa(lp569
S'12201'
p570
aF75120270.727369159
aa(lp571
S'11400'
p572
aF75521032.987095445
aa(lp573
S'12052'
p574
aF76029099.220981926
aa(lp575
S'4288'
p576
aF76514760.299606755
aa(lp577
S'1162'
p578
aF77151147.407289937
aa(lp579
S'17185'
p580
aF77307951.882009089
aa(lp581
S'12180'
p582
aF77354502.463323459
aa(lp583
S'198'
p584
aF77671924.001996651
aa(lp585
S'22782'
p586
aF78292439.659020513
aa(lp587
S'27897'
p588
aF78730451.685163096
aa(lp589
S'1952'
p590
aF79421049.302069992
aa(lp591
S'15614'
p592
aF79469749.949176341
aa(lp593
S'12263'
p594
aF79971874.180145919
aa(lp595
S'31964'
p596
aF80505842.980885893
aa(lp597
S'30542'
p598
aF80892301.861325651
aa(lp599
S'32102'
p600
aF81013265.114152372
aa(lp601
S'16688'
p602
aF81100755.378985345
aa(lp603
S'3414'
p604
aF81281001.631600901
aa(lp605
S'23019'
p606
aF81292659.365041256
aa(lp607
S'22133'
p608
aF81522688.60868831
aa(lp609
S'31979'
p610
aF82010463.174706936
aa(lp611
S'4961'
p612
aF82021339.464668334
aa(lp613
S'4302'
p614
aF82406364.584616646
aa(lp615
S'30082'
p616
aF82451924.340798229
aa(lp617
S'644'
p618
aF82616968.259083122
aa(lp619
S'21802'
p620
aF82710971.630297095
aa(lp621
S'30541'
p622
aF82842948.356573507
aa(lp623
S'21725'
p624
aF83235522.223965794
aa(lp625
S'20941'
p626
aF83408971.250553101
aa(lp627
S'21584'
p628
aF83887613.634706542
aa(lp629
S'30546'
p630
aF84206555.41028671
aa(lp631
S'3504'
p632
aF84871838.967125788
aa(lp633
S'17301'
p634
aF86953190.368968278
aa(lp635
S'4155'
p636
aF87358475.484180138
aa(lp637
S'15635'
p638
aF87846586.608109042
aa(lp639
S'29089'
p640
aF88263297.365861893
aa(lp641
S'10842'
p642
aF89542786.579509109
aa(lp643
S'2354'
p644
aF90137555.800264314
aa(lp645
S'23156'
p646
aF91432317.805090308
aa(lp647
S'4057'
p648
aF91651110.53522332
aa(lp649
S'30536'
p650
aF93419424.271030173
aa(lp651
S'27401'
p652
aF94005612.438927531
aa(lp653
S'18580'
p654
aF94042809.164642349
aa(lp655
S'486'
p656
aF94275610.496116608
aa(lp657
S'650'
p658
aF94309262.728609785
aa(lp659
S'28013'
p660
aF96205627.663315743
aa(lp661
S'16694'
p662
aF96735278.759179801
aa(lp663
S'16188'
p664
aF96799413.640775263
aa(lp665
S'31959'
p666
aF97205877.265226975
aa(lp667
S'200'
p668
aF97529328.414099887
aa(lp669
S'32115'
p670
aF98384674.881578207
aa(lp671
S'32061'
p672
aF98917733.055597574
aa(lp673
S'30117'
p674
aF100412822.28618331
aa(lp675
S'22765'
p676
aF101926257.38390155
aa(lp677
S'20447'
p678
aF102100523.82589208
aa(lp679
S'3265'
p680
aF102589434.38904829
aa(lp681
S'29095'
p682
aF103731028.50058863
aa(lp683
S'21019'
p684
aF105932313.94976993
aa(lp685
S'3130'
p686
aF106220213.40671346
aa(lp687
S'24567'
p688
aF106370537.41208433
aa(lp689
S'18600'
p690
aF106754233.25885616
aa(lp691
S'24560'
p692
aF108667437.31633401
aa(lp693
S'29105'
p694
aF108791706.32922061
aa(lp695
S'29992'
p696
aF109276684.41395807
aa(lp697
S'23003'
p698
aF110960137.24983077
aa(lp699
S'2346'
p700
aF111290405.71381745
aa(lp701
S'12213'
p702
aF111426060.85119621
aa(lp703
S'978'
p704
aF111697378.45209041
aa(lp705
S'26084'
p706
aF111774631.46247645
aa(lp707
S'28809'
p708
aF111802419.47534813
aa(lp709
S'12202'
p710
aF113016587.96001151
aa(lp711
S'18596'
p712
aF116698260.5248082
aa(lp713
S'12559'
p714
aF117475947.23891555
aa(lp715
S'14296'
p716
aF117491622.32189551
aa(lp717
S'24574'
p718
aF117854904.19407387
aa(lp719
S'18058'
p720
aF118968223.54946618
aa(lp721
S'10228'
p722
aF121188879.65914144
aa(lp723
S'648'
p724
aF121836314.66840543
aa(lp725
S'12557'
p726
aF125091112.74182054
aa(lp727
S'4019'
p728
aF125443037.90194587
aa(lp729
S'20503'
p730
aF125699165.46539119
aa(lp731
S'4164'
p732
aF125787658.66475275
aa(lp733
S'19463'
p734
aF126195241.03250499
aa(lp735
S'17812'
p736
aF126310736.87758584
aa(lp737
S'30123'
p738
aF127628994.41286243
aa(lp739
S'4294'
p740
aF130463016.69554551
aa(lp741
S'30028'
p742
aF131566327.89376828
aa(lp743
S'11553'
p744
aF131603722.93254
aa(lp745
S'30060'
p746
aF133900300.92301117
aa(lp747
S'527'
p748
aF133963768.66520497
aa(lp749
S'2410'
p750
aF134050147.83537944
aa(lp751
S'23133'
p752
aF134169653.68337418
aa(lp753
S'24654'
p754
aF134228861.31762829
aa(lp755
S'24494'
p756
aF134657750.14848378
aa(lp757
S'27920'
p758
aF135301707.95241871
aa(lp759
S'2889'
p760
aF136040623.38082826
aa(lp761
S'30072'
p762
aF136516284.54363272
aa(lp763
S'2454'
p764
aF136672141.25676548
aa(lp765
S'21723'
p766
aF137561692.40029868
aa(lp767
S'28676'
p768
aF138317840.13057494
aa(lp769
S'28974'
p770
aF138546925.69154435
aa(lp771
S'21082'
p772
aF139784081.48999697
aa(lp773
S'11449'
p774
aF139932998.13631752
aa(lp775
S'12214'
p776
aF140105301.22010008
aa(lp777
S'9956'
p778
aF141307781.90239796
aa(lp779
S'29344'
p780
aF142466191.09391618
aa(lp781
S'262'
p782
aF143318031.98991191
aa(lp783
S'3137'
p784
aF143370538.23157251
aa(lp785
S'29029'
p786
aF144012306.61002037
aa(lp787
S'4869'
p788
aF148892538.45007092
aa(lp789
S'27074'
p790
aF149320260.19037566
aa(lp791
S'23005'
p792
aF149398756.89624339
aa(lp793
S'16242'
p794
aF149605934.70861241
aa(lp795
S'27951'
p796
aF149794994.39627135
aa(lp797
S'4158'
p798
aF150428585.22563988
aa(lp799
S'22464'
p800
aF150686029.33475032
aa(lp801
S'23135'
p802
aF152135247.70908967
aa(lp803
S'4065'
p804
aF154561818.40272453
aa(lp805
S'12215'
p806
aF159671770.71246704
aa(lp807
S'2679'
p808
aF160408614.07657182
aa(lp809
S'17912'
p810
aF163054590.94269311
aa(lp811
S'21035'
p812
aF163383504.16016746
aa(lp813
S'23057'
p814
aF164083399.06473553
aa(lp815
S'22977'
p816
aF164093422.8933624
aa(lp817
S'3895'
p818
aF164249054.58160323
aa(lp819
S'3118'
p820
aF165590053.70920554
aa(lp821
S'17305'
p822
aF165805118.88748088
aa(lp823
S'3893'
p824
aF166447021.2628839
aa(lp825
S'20280'
p826
aF168601154.98148781
aa(lp827
S'10226'
p828
aF169424703.98799229
aa(lp829
S'16869'
p830
aF169678123.82619834
aa(lp831
S'15615'
p832
aF169802130.57483155
aa(lp833
S'15670'
p834
aF170783691.69774914
aa(lp835
S'12836'
p836
aF171398922.46506381
aa(lp837
S'16214'
p838
aF172651273.4780322
aa(lp839
S'3532'
p840
aF172862172.08563548
aa(lp841
S'27441'
p842
aF174155418.31431136
aa(lp843
S'25589'
p844
aF174366298.25973994
aa(lp845
S'5282'
p846
aF176687232.5809193
aa(lp847
S'30062'
p848
aF179026342.46726605
aa(lp849
S'30464'
p850
aF179030266.06057185
aa(lp851
S'23051'
p852
aF179307746.88459679
aa(lp853
S'23113'
p854
aF179602958.95906463
aa(lp855
S'2969'
p856
aF181564651.53138769
aa(lp857
S'20410'
p858
aF182074678.265935
aa(lp859
S'11693'
p860
aF182704721.29052219
aa(lp861
S'22613'
p862
aF183853843.26510537
aa(lp863
S'12211'
p864
aF184508863.57039955
aa(lp865
S'28444'
p866
aF185496211.11728859
aa(lp867
S'28800'
p868
aF186776622.5513536
aa(lp869
S'31222'
p870
aF187587051.67779449
aa(lp871
S'28326'
p872
aF189434771.00709119
aa(lp873
S'28799'
p874
aF189907057.19622102
aa(lp875
S'3721'
p876
aF191053352.535965
aa(lp877
S'689'
p878
aF192693029.10999554
aa(lp879
S'2801'
p880
aF193108931.79350179
aa(lp881
S'645'
p882
aF193412761.35562652
aa(lp883
S'27399'
p884
aF196842114.78279543
aa(lp885
S'3124'
p886
aF197159029.45005071
aa(lp887
S'28808'
p888
aF201515923.4592067
aa(lp889
S'31718'
p890
aF202562935.90183198
aa(lp891
S'21740'
p892
aF203544781.91385454
aa(lp893
S'28794'
p894
aF205493140.0567143
aa(lp895
S'3550'
p896
aF208274625.57370514
aa(lp897
S'24694'
p898
aF208352846.3287845
aa(lp899
S'20158'
p900
aF208529535.33795565
aa(lp901
S'21918'
p902
aF208595928.14694527
aa(lp903
S'28409'
p904
aF209771698.8230733
aa(lp905
S'23049'
p906
aF210342792.6731337
aa(lp907
S'32305'
p908
aF210663875.56481898
aa(lp909
S'22961'
p910
aF212886112.55717203
aa(lp911
S'24490'
p912
aF217057191.8990649
aa(lp913
S'27252'
p914
aF217833589.63590226
aa(lp915
S'19699'
p916
aF217941544.77843612
aa(lp917
S'30161'
p918
aF218946857.72154498
aa(lp919
S'22559'
p920
aF219275243.210273
aa(lp921
S'17722'
p922
aF219571258.91432345
aa(lp923
S'17732'
p924
aF220536279.69021741
aa(lp925
S'3264'
p926
aF221168127.78039861
aa(lp927
S'3186'
p928
aF226006827.58082092
aa(lp929
S'2929'
p930
aF226608004.47308052
aa(lp931
S'2349'
p932
aF228499483.04577112
aa(lp933
S'16634'
p934
aF229776681.17259744
aa(lp935
S'1549'
p936
aF234077992.95502248
aa(lp937
S'28336'
p938
aF234093394.80569637
aa(lp939
S'27921'
p940
aF234403187.74112937
aa(lp941
S'32108'
p942
aF236749651.47172445
aa(lp943
S'6073'
p944
aF239895187.3145512
aa(lp945
S'11287'
p946
aF242713866.69069597
aa(lp947
S'17718'
p948
aF242783294.92516556
aa(lp949
S'29969'
p950
aF244603755.56434241
aa(lp951
S'1319'
p952
aF246366853.65243515
aa(lp953
S'30050'
p954
aF247547826.05814809
aa(lp955
S'15466'
p956
aF249429765.55303723
aa(lp957
S'27369'
p958
aF258576825.62187248
aa(lp959
S'2398'
p960
aF258976066.038993
aa(lp961
S'25894'
p962
aF262211932.87755287
aa(lp963
S'21898'
p964
aF263526668.38105944
aa(lp965
S'2876'
p966
aF277418186.07531345
aa(lp967
S'24283'
p968
aF277689172.54899311
aa(lp969
S'30143'
p970
aF277789709.4398008
aa(lp971
S'29266'
p972
aF279419189.59233338
aa(lp973
S'2307'
p974
aF284228146.04360294
aa(lp975
S'17249'
p976
aF287830284.77881247
aa(lp977
S'22442'
p978
aF287944788.56384099
aa(lp979
S'20959'
p980
aF291276877.14426655
aa(lp981
S'24657'
p982
aF295553951.52462465
aa(lp983
S'27407'
p984
aF296164419.873133
aa(lp985
S'30021'
p986
aF301151830.86408091
aa(lp987
S'31047'
p988
aF304322551.55664355
aa(lp989
S'3573'
p990
aF304368783.84163952
aa(lp991
S'2390'
p992
aF306090323.32041866
aa(lp993
S'30110'
p994
aF306532419.04517663
aa(lp995
S'20189'
p996
aF306819870.12432474
aa(lp997
S'17287'
p998
aF315564411.8575784
aa(lp999
S'3229'
p1000
aF318695160.40933704
aa(lp1001
S'15632'
p1002
aF330168578.07919329
aa(lp1003
S'25887'
p1004
aF337143699.63245296
aa(lp1005
S'28810'
p1006
aF343501271.68947285
aa(lp1007
S'16635'
p1008
aF350719567.0544042
aa(lp1009
S'32344'
p1010
aF354451730.20300883
aa(lp1011
S'25595'
p1012
aF357359024.62545615
aa(lp1013
S'20172'
p1014
aF358832291.62747872
aa(lp1015
S'20418'
p1016
aF360478034.64528334
aa(lp1017
S'15592'
p1018
aF376218390.04330885
aa(lp1019
S'32340'
p1020
aF388752893.8074857
aa(lp1021
S'20413'
p1022
aF398017775.61850762
aa(lp1023
S'24558'
p1024
aF399354939.58458209
aa(lp1025
S'15630'
p1026
aF414302280.42243016
aa(lp1027
S'2311'
p1028
aF422229971.16429359
aa(lp1029
S'12205'
p1030
aF436030012.52805358
aa(lp1031
S'16636'
p1032
aF446818821.97236866
aa(lp1033
S'24348'
p1034
aF448274261.29941285
aa(lp1035
S'21278'
p1036
aF449161852.19681239
aa(lp1037
S'21012'
p1038
aF458374815.64616233
aa(lp1039
S'17843'
p1040
aF458871390.93659449
aa(lp1041
S'17670'
p1042
aF459442817.08135539
aa(lp1043
S'26224'
p1044
aF475491560.99174798
aa(lp1045
S'2872'
p1046
aF494421368.02753341
aa(lp1047
S'2867'
p1048
aF506435580.35402757
aa(lp1049
S'3478'
p1050
aF516779497.84892648
aa(lp1051
S'30092'
p1052
aF520579531.93161029
aa(lp1053
S'15605'
p1054
aF568465090.64538515
aa(lp1055
S'3189'
p1056
aF584284768.03128099
aa(lp1057
S'20509'
p1058
aF606701396.7188834
aa(lp1059
S'27443'
p1060
aF642408453.12450612
aa(lp1061
S'30254'
p1062
aF660604068.72814322
aa(lp1063
S'11872'
p1064
aF686582056.55821002
aa(lp1065
S'15613'
p1066
aF692835066.40881073
aa(lp1067
S'16668'
p1068
aF749454737.07070839
aa(lp1069
S'25598'
p1070
aF772937004.25112426
aa(lp1071
S'16640'
p1072
aF819933680.16510272
aa(lp1073
S'24693'
p1074
aF951188856.41178453
aa(lp1075
S'19539'
p1076
aF1081290635.113982
aa(lp1077
S'25617'
p1078
aF1096977586.6397934
aa(lp1079
S'29996'
p1080
aF1111865125.5770938
aa(lp1081
S'30373'
p1082
aF1126252190.8008978
aa(lp1083
S'28848'
p1084
aF1466440893.351531
aa(lp1085
S'28844'
p1086
aF2109439178.5100946
aa(lp1087
S'27431'
p1088
aF59504770810.338631
aatRp1089
.