(dp1
S'20447'
p2
(dp3
S'INV'
p4
F2300000.0104545453
sS'PAT'
p5
F102227355.06351221
sS'TOP'
p6
F1.2449145866184486
sS'POI'
p7
F4444.6675912540186
ssS'22466'
p8
(dp9
g4
F1403312193.0157316
sg5
F188431179.10873559
sg6
F13.542277068647646
sg7
F13.427602214714257
ssS'4027'
p10
(dp11
g4
F286000074.67985797
sg5
F110409822.75312078
sg6
F5.4979038263294751
sg7
F38.604823050032785
ssS'26372'
p12
(dp13
g4
F38884848.550787881
sg5
F33908734.403807089
sg6
F3.1069497295610118
sg7
F87.202948365655999
ssS'3555'
p14
(dp15
g4
F45985.72878571428
sg5
F7665439.2843254199
sg6
F1.2175869304674665
sg7
F16669.169950627664
ssS'11268'
p16
(dp17
g4
F749214.02140000009
sg5
F9807777.8601108007
sg6
F1.3341711156449199
sg7
F1309.0755885459459
ssS'17291'
p18
(dp19
g4
F6498925.3410000009
sg5
F72270659.227771357
sg6
F1.3565884311899317
sg7
F1112.0401518053284
ssS'13243'
p20
(dp21
g4
F34718181.701777913
sg5
F370204505.69703615
sg6
F1.3629753712599157
sg7
F1066.3130600473758
ssS'13241'
p22
(dp23
g4
F1300003.6000000001
sg5
F35618311.967634201
sg6
F1.2681008683854194
sg7
F2739.8625640447608
ssS'2078'
p24
(dp25
g4
F420416697.34811288
sg5
F578205896.67378175
sg6
F2.4119154900308932
sg7
F137.53162049009114
ssS'20412'
p26
(dp27
g4
F485735806.69031477
sg5
F177857499.07580203
sg6
F5.730919733245913
sg7
F36.616098015849317
ssS'32442'
p28
(dp29
g4
F38724090.754761197
sg5
F71762667.238641337
sg6
F2.1013825562945936
sg7
F185.31788827041208
ssS'3998'
p30
(dp31
g4
F30672000.001999997
sg5
F63757032.955217674
sg6
F2.0044310102698137
sg7
F207.86721749824056
ssS'27147'
p32
(dp33
g4
F17250001.065000001
sg5
F12315567.650660237
sg6
F3.5274969182315332
sg7
F71.394590668451272
ssS'13249'
p34
(dp35
g4
F295664613.06417722
sg5
F33276618.365685578
sg6
F15.923476117396776
sg7
F11.254853267970397
ssS'15466'
p36
(dp37
g4
F188170069.90126023
sg5
F238328844.38239115
sg6
F2.5153216642713918
sg7
F126.65608537396574
ssS'3993'
p38
(dp39
g4
F22344025.210978262
sg5
F31620139.228423454
sg6
F2.3780180197193017
sg7
F141.51496397742861
ssS'24657'
p40
(dp41
g4
F308263638.2596364
sg5
F254669807.05225486
sg6
F3.2124428479625795
sg7
F82.61428707259924
ssS'24654'
p42
(dp43
g4
F421859970.85420901
sg5
F137752068.85578546
sg6
F6.2798308117331825
sg7
F32.65350551673729
ssS'16670'
p44
(dp45
g4
F4042069684.1793547
sg5
F926649278.99703085
sg6
F8.4322352212431753
sg7
F22.925118847503608
ssS'32305'
p46
(dp47
g4
F1122409780.4242702
sg5
F213813632.78460705
sg6
F9.9020687720165839
sg7
F19.049516185059044
ssS'21902'
p48
(dp49
g4
F524044426.60776919
sg5
F265677018.74167669
sg6
F4.4745715146734106
sg7
F50.697422823757577
ssS'22765'
p50
(dp51
g4
F32333216.925638001
sg5
F95120467.948904619
sg6
F1.770639288198838
sg7
F294.18807342204383
ssS'15615'
p52
(dp53
g4
F452033078.41172016
sg5
F170822360.36628166
sg6
F5.5904338155608189
sg7
F37.789792058247002
ssS'32309'
p54
(dp55
g4
F1158445564.2310715
sg5
F126472173.7386663
sg6
F16.378332943074618
sg7
F10.917403255164029
ssS'12068'
p56
(dp57
g4
F272409256.59352171
sg5
F43938947.974704951
sg6
F11.475906380789047
sg7
F16.12975584022422
ssS'30110'
p58
(dp59
g4
F743535484.0333637
sg5
F296606997.34314352
sg6
F5.3595306775422955
sg7
F39.891438097100185
ssS'3337'
p60
(dp61
g4
F81292016.900332108
sg5
F34572169.415479362
sg6
F5.1020972842740502
sg7
F42.528369615760049
ssS'3334'
p62
(dp63
g4
F11792811.695
sg5
F61570167.971230313
sg6
F1.5248789330331436
sg7
F522.09913601296
ssS'20280'
p64
(dp65
g4
F424255030.28570002
sg5
F170693149.64463317
sg6
F5.3242196306508438
sg7
F40.233618333219461
ssS'27401'
p66
(dp67
g4
F307893244.71920145
sg5
F94832493.62241672
sg6
F6.5849903320785277
sg7
F30.800446339413494
ssS'2311'
p68
(dp69
g4
F49872129.192577958
sg5
F420847617.7794643
sg6
F1.4039225695075559
sg7
F843.8533196655568
ssS'27175'
p70
(dp71
g4
F5626163.3617518255
sg5
F28391109.193109803
sg6
F1.5358629400566688
sg7
F504.62646332170539
ssS'594'
p72
(dp73
g4
F87930328.531092405
sg5
F42173540.97082267
sg6
F4.6608617181632344
sg7
F47.962451267209801
ssS'598'
p74
(dp75
g4
F46865165.593081079
sg5
F26029074.764079973
sg6
F4.1897075528808756
sg7
F55.540345232286484
ssS'25284'
p76
(dp77
g4
F435833.39231249999
sg5
F26677796.003771596
sg6
F1.2347089131903375
sg7
F6121.0995931773768
ssS'192'
p78
(dp79
g4
F23265032.728683311
sg5
F23851834.342911784
sg6
F2.8231486411851225
sg7
F102.52224710393382
ssS'3140'
p80
(dp81
g4
F1272713592.9977777
sg5
F149923515.34167975
sg6
F15.267652955619116
sg7
F11.779831390701705
ssS'25887'
p82
(dp83
g4
F463927402.17873305
sg5
F336050280.91603625
sg6
F3.4941457613515734
sg7
F72.435962898041808
ssS'11133'
p84
(dp85
g4
F530502.17252380948
sg5
F1191167317.3449914
sg6
F1.2083885861274319
sg7
F224535.80381737847
ssS'3655'
p86
(dp87
g4
F75840613.422409013
sg5
F48659050.883451186
sg6
F3.7890946703482404
sg7
F64.159621985696717
ssS'24574'
p88
(dp89
g4
F361713906.29650909
sg5
F116612533.08913884
sg6
F6.3450633978792883
sg7
F32.238885776635748
ssS'20210'
p90
(dp91
g4
F54885782.152248912
sg5
F29838236.885336589
sg6
F4.2542209244352645
sg7
F54.364237358534183
ssS'26048'
p92
(dp93
g4
F4143325.648191419
sg5
F25839931.997036725
sg6
F1.473222878900657
sg7
F623.65196924156749
ssS'16279'
p94
(dp95
g4
F38865735.402058139
sg5
F59372050.627858795
sg6
F2.2918506918760255
sg7
F152.76193802501609
ssS'16278'
p96
(dp97
g4
F236077062.24384266
sg5
F68616768.843654692
sg6
F6.9059860621047058
sg7
F29.065411180346196
ssS'25591'
p98
(dp99
g4
F17011655.353750303
sg5
F6083880.4695374696
sg6
F5.8388170760370715
sg7
F35.76301272877744
ssS'25596'
p100
(dp101
g4
F52251529.306691289
sg5
F42995287.217600167
sg6
F3.2204601529591517
sg7
F82.285222630018268
ssS'1403'
p102
(dp103
g4
F15570835.77912391
sg5
F35346999.631016776
sg6
F1.9372492763614229
sg7
F227.00772220850928
ssS'1401'
p104
(dp105
g4
F14601646.547599999
sg5
F50133417.994324699
sg6
F1.6900417077281171
sg7
F343.34085427211551
ssS'448'
p106
(dp107
g4
F507562981.47782397
sg5
F137480380.5844979
sg6
F7.3223300661170763
sg7
F27.086368707230985
ssS'444'
p108
(dp109
g4
F3748737.8229365852
sg5
F26538815.529089615
sg6
F1.4416036165542994
sg7
F707.94002628597673
ssS'25233'
p110
(dp111
g4
F5847558.6535258191
sg5
F19757968.95285061
sg6
F1.6978322618202955
sg7
F337.88406621517902
ssS'22551'
p112
(dp113
g4
F123736652.03262746
sg5
F25888436.264029007
sg6
F9.123855352517328
sg7
F20.922205214670445
ssS'21202'
p114
(dp115
g4
F1711812.7033333334
sg5
F23896221.746966835
sg6
F1.3262965078517901
sg7
F1395.9600662172229
ssS'21611'
p116
(dp117
g4
F304660006.00427085
sg5
F84964064.61676909
sg6
F7.1465319456751564
sg7
F27.888158255855227
ssS'2044'
p118
(dp119
g4
F10000000
sg5
F25427302.584431335
sg6
F1.8590155758719351
sg7
F254.27302584431337
ssS'38'
p120
(dp121
g4
F5178201395.6876383
sg5
F1691921091.888844
sg6
F6.2766626095802112
sg7
F32.673914407768329
ssS'26076'
p122
(dp123
g4
F40853735.673140794
sg5
F37387660.968582079
sg6
F3.017439919440406
sg7
F91.515892861573789
ssS'25976'
p124
(dp125
g4
F542.5
sg5
F4889805.9969071262
sg6
F1.207834707856418
sg7
F901346.72754048405
ssS'36'
p126
(dp127
g4
F5679017210.3287888
sg5
F933727087.11625421
sg6
F11.281088167872069
sg7
F16.441702015236466
ssS'35'
p128
(dp129
g4
F4991608031.7892351
sg5
F1148711057.7145784
sg6
F8.4046944929839196
sg7
F23.012845768316957
ssS'31079'
p130
(dp131
g4
F60116318.846733339
sg5
F89819156.608273029
sg6
F2.3161820080516979
sg7
F149.40894308127403
ssS'23061'
p132
(dp133
g4
F1276501613.4675376
sg5
F347877891.16067028
sg6
F7.2850673924093012
sg7
F27.25244429700966
ssS'30070'
p134
(dp135
g4
F205415222.59932691
sg5
F120487106.14590773
sg6
F4.0313376513612145
sg7
F58.655393023585255
ssS'28326'
p136
(dp137
g4
F116241440.47984277
sg5
F174232414.9751879
sg6
F2.3126362127234947
sg7
F149.88838253892877
ssS'648'
p138
(dp139
g4
F169727008.15108678
sg5
F168182780.63279873
sg6
F2.8791028583770184
sg7
F99.090169835013285
ssS'2161'
p140
(dp141
g4
F48206507.726522908
sg5
F7255062.4916176964
sg6
F12.212623660233694
sg7
F15.049964898465376
ssS'23142'
p142
(dp143
g4
F7350002.3062396701
sg5
F37793055.469765015
sg6
F1.5297577807620157
sg7
F514.19106954131416
ssS'31077'
p144
(dp145
g4
F29760296.623046871
sg5
F37027163.625192426
sg6
F2.538844696707474
sg7
F124.41799251596831
ssS'20959'
p146
(dp147
g4
F39631275.131793104
sg5
F291703570.72012419
sg6
F1.4326707675649337
sg7
F736.04386876291289
ssS'28811'
p148
(dp149
g4
F1019844032.5842401
sg5
F215435762.75942332
sg6
F9.0480906203262901
sg7
F21.124383324920629
ssS'17728'
p150
(dp151
g4
F1547461627.6884267
sg5
F247236907.06583863
sg6
F11.574124494360385
sg7
F15.976932974755384
ssS'23711'
p152
(dp153
g4
F50858740.297210358
sg5
F26394734.706414014
sg6
F4.3989885959915851
sg7
F51.898129116386684
ssS'12442'
p154
(dp155
g4
F3532265.8012989694
sg5
F21601051.999605007
sg6
F1.4784847978562035
sg7
F611.53529249303244
ssS'21723'
p156
(dp157
g4
F34730637.41447369
sg5
F133979051.41548301
sg6
F1.6369899276953856
sg7
F385.76617473668483
ssS'21725'
p158
(dp159
g4
F28678623.720419899
sg5
F85226029.476119503
sg6
F1.7649784990249644
sg7
F297.17614871259121
ssS'21726'
p160
(dp161
g4
F90855752.71746482
sg5
F76851507.633565769
sg6
F3.1657041937878003
sg7
F84.586286872281818
ssS'13240'
p162
(dp163
g4
F275877057.6536805
sg5
F35694015.326386489
sg6
F14.008672731208135
sg7
F12.938377562078617
ssS'3893'
p164
(dp165
g4
F401048674.28128749
sg5
F165663767.97005448
sg6
F5.2171859362327986
sg7
F41.307646326705282
ssS'12239'
p166
(dp167
g4
F404188974.03857148
sg5
F181037182.27854916
sg6
F4.9054315361820073
sg7
F44.79023276406172
ssS'25908'
p168
(dp169
g4
F17320551.520572916
sg5
F16645883.364715762
sg6
F2.931024120582026
sg7
F96.104811356290824
ssS'3895'
p170
(dp171
g4
F879598631.24652696
sg5
F171895805.54740739
sg6
F9.6827293101736842
sg7
F19.542527630335726
ssS'16533'
p172
(dp173
g4
F35804997.179528095
sg5
F21084128.698903482
sg6
F4.0202799023221507
sg7
F58.885994581109948
ssS'30488'
p174
(dp175
g4
F816658964.81686521
sg5
F188976057.19287321
sg6
F8.3651023425130582
sg7
F23.140143601466601
ssS'22430'
p176
(dp177
g4
F2572608209.4700003
sg5
F292429990.06518662
sg6
F15.778209438959632
sg7
F11.367062772664946
ssS'27315'
p178
(dp179
g4
F120032670.98060471
sg5
F84440678.829689384
sg6
F3.5620073793910403
sg7
F70.348079518561747
ssS'29089'
p180
(dp181
g4
F1308523.7954545454
sg5
F88371329.50152804
sg6
F1.232175146803232
sg7
F6753.513371977333
ssS'12620'
p182
(dp183
g4
F62486583.917255282
sg5
F60616644.962605871
sg6
F2.9149883185207628
sg7
F97.007455300924136
ssS'31954'
p184
(dp185
g4
F156141877.92918584
sg5
F144812906.61910564
sg6
F2.993466440780812
sg7
F92.744437648419876
ssS'20415'
p186
(dp187
g4
F708892360.63791716
sg5
F459154169.6759662
sg6
F3.7647421715979235
sg7
F64.770647163242543
ssS'22120'
p188
(dp189
g4
F308563756.56843907
sg5
F165720553.00560695
sg6
F4.2914991834869989
sg7
F53.707070087750353
ssS'10247'
p190
(dp191
g4
F16690664.97495652
sg5
F38936282.393897802
sg6
F1.9176268663561296
sg7
F233.28179226124112
ssS'31959'
p192
(dp193
g4
F153441178.30752942
sg5
F89649870.826231584
sg6
F4.0424136805935138
sg7
F58.426213755054576
ssS'4078'
p194
(dp195
g4
F30550002.107083336
sg5
F40095969.826795392
sg6
F2.4695801239201565
sg7
F131.2470280239317
ssS'30550'
p196
(dp197
g4
F52406502.769272007
sg5
F79512209.755826384
sg6
F2.2992818355930931
sg7
F151.7220298135359
ssS'30551'
p198
(dp199
g4
F25092719.347977273
sg5
F70825537.013482735
sg6
F1.7944404230258253
sg7
F282.25532685915124
ssS'30552'
p200
(dp201
g4
F40146353.274763517
sg5
F46681181.65474312
sg6
F2.6320403052451802
sg7
F116.2775142620176
ssS'24625'
p202
(dp203
g4
F128896876.04471052
sg5
F41486687.83528953
sg6
F6.3535123610706759
sg7
F32.18595291704279
ssS'25622'
p204
(dp205
g4
F1338418362.7067597
sg5
F697328508.6516248
sg6
F4.386566005601086
sg7
F52.100937052400987
ssS'1317'
p206
(dp207
g4
F8126231.0244509475
sg5
F14417055.556757888
sg6
F2.141199808508842
sg7
F177.41380368560201
ssS'16214'
p208
(dp209
g4
F1167530569.8452368
sg5
F168569267.83848575
sg6
F12.678995309745487
sg7
F14.438103137704619
ssS'19933'
p210
(dp211
g4
F11713946.039355677
sg5
F28822820.99001614
sg6
F1.8807689356279318
sg7
F246.05560665192834
ssS'2865'
p212
(dp213
g4
F207408829.73085216
sg5
F153980926.84796339
sg6
F3.4385749185433476
sg7
F74.240294903442418
ssS'2867'
p214
(dp215
g4
F1581055232.8209369
sg5
F568705132.83180928
sg6
F5.812170817401153
sg7
F35.969972523801019
ssS'15610'
p216
(dp217
g4
F202833655.055264
sg5
F290696955.38450933
sg6
F2.3632947464926062
sg7
F143.31791009007165
ssS'12052'
p218
(dp219
g4
F108542206.09742135
sg5
F75302043.969350919
sg6
F3.5950022883846904
sg7
F69.375818565696051
ssS'234'
p220
(dp221
g4
F16586588.991385177
sg5
F24043015.260715809
sg6
F2.3502467147871813
sg7
F144.95454896243817
ssS'235'
p222
(dp223
g4
F24148256.063546397
sg5
F32561379.839035623
sg6
F2.4359593747277448
sg7
F134.839467302939
ssS'15661'
p224
(dp225
g4
F945270949.28902614
sg5
F190109076.71280962
sg6
F9.4429223344395012
sg7
F20.111596241881529
ssS'12194'
p226
(dp227
g4
F2133007.028264543
sg5
F44750485.493801512
sg6
F1.286594930939206
sg7
F2097.999908148985
ssS'28441'
p228
(dp229
g4
F664138450.85584545
sg5
F157150292.46296981
sg6
F8.2071649786411474
sg7
F23.662278890863384
ssS'2346'
p230
(dp231
g4
F378950196.91935289
sg5
F102664907.27637322
sg6
F7.3210757578464012
sg7
F27.091926092394164
ssS'21898'
p232
(dp233
g4
F388946843.6165418
sg5
F284258230.8659032
sg6
F3.4738688234579906
sg7
F73.084082190457394
ssS'21896'
p234
(dp235
g4
F578294981.83053863
sg5
F319975348.40947527
sg6
F4.2009999890608851
sg7
F55.330818779824668
ssS'2349'
p236
(dp237
g4
F446792272.09836799
sg5
F230272756.93163329
sg6
F4.4212193611286139
sg7
F51.539109181578524
ssS'21890'
p238
(dp239
g4
F523319444.18372309
sg5
F159654782.84559432
sg6
F6.6365203635417229
sg7
F30.508093024256883
ssS'17301'
p240
(dp241
g4
F15084004.4
sg5
F87092296.31955412
sg6
F1.4945052564352241
sg7
F577.38180134417178
ssS'30254'
p242
(dp243
g4
F284695300.32871425
sg5
F663437366.67950475
sg6
F1.9183812480890758
sg7
F233.03418283107877
ssS'25270'
p244
(dp245
g4
F123022472.46784483
sg5
F88237233.567632034
sg6
F3.5168268981160664
sg7
F71.724483988642945
ssS'17305'
p246
(dp247
g4
F11972308.772307692
sg5
F142960380.28897581
sg6
F1.346354216403699
sg7
F1194.091991844108
ssS'23051'
p248
(dp249
g4
F249907546.65353629
sg5
F181074933.52120817
sg6
F3.4934891933492724
sg7
F72.456768891515139
ssS'28810'
p250
(dp251
g4
F630101313.23266661
sg5
F348059117.02153993
sg6
F4.2059975059890391
sg7
F55.238595716593622
ssS'5533'
p252
(dp253
g4
F1021443.7770744681
sg5
F56281268.615510665
sg6
F1.2377099914361469
sg7
F5509.9722450418813
ssS'18025'
p254
(dp255
g4
F3988181.8453076924
sg5
F51323178.050245337
sg6
F1.3363531251807783
sg7
F1286.8815926894051
ssS'16447'
p256
(dp257
g4
F250615990.7246066
sg5
F111514055.36394984
sg6
F4.9298845538637579
sg7
F44.495985687716491
ssS'3333'
p258
(dp259
g4
F3020774.3279999997
sg5
F13369262.032798033
sg6
F1.5818781150965189
sg7
F442.57731896343222
ssS'26062'
p260
(dp261
g4
F617524.17535714281
sg5
F48216059.861414254
sg6
F1.2288632040132772
sg7
F7807.9631187764717
ssS'3118'
p262
(dp263
g4
F188115397.47203702
sg5
F168831206.05720541
sg6
F3.0530745901960055
sg7
F89.748743763679329
ssS'29668'
p264
(dp265
g4
F109484773363.86705
sg5
F60379600734.844482
sg6
F4.2108764606120372
sg7
F55.148856667196966
ssS'20314'
p266
(dp267
g4
F1210809.081
sg5
F13506908.816003883
sg6
F1.3561228187162262
sg7
F1115.5275450072284
ssS'21802'
p268
(dp269
g4
F119437930.38086666
sg5
F85554540.092925385
sg6
F3.5198417353363043
sg7
F71.630963313000251
ssS'11475'
p270
(dp271
g4
F34607997.121726371
sg5
F56925472.502064265
sg6
F2.2145693592627644
sg7
F164.48646912978194
ssS'29101'
p272
(dp273
g4
F34607401.715813018
sg5
F352227574.50244474
sg6
F1.3703818827754124
sg7
F1017.7810440519228
ssS'2533'
p274
(dp275
g4
F15380443.61351051
sg5
F34690465.881058782
sg6
F1.9419672856074619
sg7
F225.54918930027438
ssS'29105'
p276
(dp277
g4
F120481.004
sg5
F108921329.58844343
sg6
F1.2094829751831122
sg7
F90405.396678503297
ssS'17185'
p278
(dp279
g4
F156349075.41760957
sg5
F61184411.930795968
sg6
F5.4399757034472334
sg7
F39.133209945355887
ssS'26102'
p280
(dp281
g4
F13810238.404054053
sg5
F58169509.892755903
sg6
F1.6008660926628195
sg7
F421.20568950989286
ssS'16648'
p282
(dp283
g4
F5758628777.1005239
sg5
F2588630018.1497016
sg6
F4.892108502870018
sg7
F44.952194669042022
ssS'27951'
p284
(dp285
g4
F454421120.19722897
sg5
F140294103.71459225
sg6
F6.5723275480222876
sg7
F30.873147721149373
ssS'20172'
p286
(dp287
g4
F771165161.38896477
sg5
F347931619.70838314
sg6
F4.87859664512896
sg7
F45.117652758290433
ssS'3414'
p288
(dp289
g4
F6024411.0651063835
sg5
F81391903.800250545
sg6
F1.3302417466457142
sg7
F1351.0350293271906
ssS'3415'
p290
(dp291
g4
F28031250
sg5
F58759163.532993168
sg6
F1.9977677930144666
sg7
F209.62020435404474
ssS'498'
p292
(dp293
g4
F171974588.82677045
sg5
F75509583.457849383
sg6
F4.9797810462865959
sg7
F43.907407468152158
ssS'12836'
p294
(dp295
g4
F273471192.65684205
sg5
F157748924.35188454
sg6
F4.0788918758137473
sg7
F57.683927443806319
ssS'490'
p296
(dp297
g4
F12773028.393821655
sg5
F20301803.773367077
sg6
F2.2496893200107122
sg7
F158.94275928476844
ssS'17168'
p298
(dp299
g4
F136510152.11176997
sg5
F41713277.171671204
sg6
F6.6278482629642328
sg7
F30.556904762304978
ssS'493'
p300
(dp301
g4
F16386044.128666667
sg5
F49165467.18110618
sg6
F1.7596501025713349
sg7
F300.04476245180706
ssS'31516'
p302
(dp303
g4
F2388570.0646153847
sg5
F23544632.77041059
sg6
F1.3756746466734315
sg7
F985.72083436881815
ssS'20865'
p304
(dp305
g4
F1264751.3047297297
sg5
F81075112.913632378
sg6
F1.2334879524004962
sg7
F6410.360092963705
ssS'23117'
p306
(dp307
g4
F246228034.14356241
sg5
F74970914.750298142
sg6
F6.6472782541266442
sg7
F30.447757507005317
ssS'2403'
p308
(dp309
g4
F84306677.276238814
sg5
F80952139.550158322
sg6
F2.9325278246644446
sg7
F96.021029609447154
ssS'2454'
p310
(dp311
g4
F66496838.366128571
sg5
F137674731.26149806
sg6
F2.0076163795042472
sg7
F207.03951442543365
ssS'28682'
p312
(dp313
g4
F48835198.811526641
sg5
F32660520.718118135
sg6
F3.6841280320058694
sg7
F66.879057550614959
ssS'28211'
p314
(dp315
g4
F1400181486.8301878
sg5
F332486535.72024596
sg6
F8.1824985906718428
sg7
F23.745959995010953
ssS'31436'
p316
(dp317
g4
F2900052.2386666667
sg5
F23448685.179806668
sg6
F1.4124895475609127
sg7
F808.56078615285492
ssS'19463'
p318
(dp319
g4
F200001.20000000001
sg5
F128157985.1585619
sg6
F1.2102356630522364
sg7
F64078.608107632303
ssS'17715'
p320
(dp321
g4
F3031201829.9982405
sg5
F354347035.40584713
sg6
F15.37571487598218
sg7
F11.689984873295382
ssS'9702'
p322
(dp323
g4
F531272.72727272718
sg5
F15915408.585674791
sg6
F1.2629381035249669
sg7
F2995.7134572625382
ssS'1959'
p324
(dp325
g4
F7721280.2672671238
sg5
F13855649.97458118
sg6
F2.1306194359396278
sg7
F179.44757209914439
ssS'17718'
p326
(dp327
g4
F1001317599.6994289
sg5
F260057197.20246235
sg6
F7.5848126503052002
sg7
F25.97149968007405
ssS'3561'
p328
(dp329
g4
F535150781.01156598
sg5
F173472990.98153299
sg6
F6.3170374272403507
sg7
F32.415722285526066
ssS'12533'
p330
(dp331
g4
F22335120.585767489
sg5
F30961754.800920904
sg6
F2.4024288845917132
sg7
F138.62362946296574
ssS'15629'
p332
(dp333
g4
F1767326.9505446057
sg5
F13279974.710366232
sg6
F1.4280674592061193
sg7
F751.41584336016479
ssS'16665'
p334
(dp335
g4
F746513998.43385887
sg5
F375135852.89039451
sg6
F4.5035495382418693
sg7
F50.251683649255988
ssS'30165'
p336
(dp337
g4
F264456418.53968748
sg5
F172709004.10968155
sg6
F3.7437346917352996
sg7
F65.307170483276721
ssS'20421'
p338
(dp339
g4
F642879514.31035197
sg5
F351362644.98720056
sg6
F4.2380404795601221
sg7
F54.654509463429449
ssS'27431'
p340
(dp341
g4
F38407883.398363635
sg5
F59572241496.819786
sg6
F1.2087187826271055
sg7
F155104.20316303568
ssS'4046'
p342
(dp343
g4
F117514047.67395833
sg5
F147295312.3756521
sg6
F2.5290236145339891
sg7
F125.34272735147513
ssS'4048'
p344
(dp345
g4
F243709182.23894736
sg5
F425586971.85716802
sg6
F2.1560869428190284
sg7
F174.6290262629073
ssS'2307'
p346
(dp347
g4
F37020971.004657187
sg5
F285426882.4430027
sg6
F1.4224722792886311
sg7
F770.98702356320257
ssS'25610'
p348
(dp349
g4
F104729390.56081082
sg5
F396573953.51152545
sg6
F1.6450409521886786
sg7
F378.66538837658561
ssS'25615'
p350
(dp351
g4
F53939610.249891579
sg5
F61884423.679156564
sg6
F2.6512643735036279
sg7
F114.72908942511492
ssS'25619'
p352
(dp353
g4
F2439127789.9340029
sg5
F1628896714.4569697
sg6
F3.6877296629478118
sg7
F66.781934147904735
ssS'11283'
p354
(dp355
g4
F33390811.912744366
sg5
F24574230.867482714
sg6
F3.4581120118557136
sg7
F73.59578716354423
ssS'16069'
p356
(dp357
g4
F3272112.6747765364
sg5
F5459326.6385001615
sg6
F2.2003409108627614
sg7
F166.84409068746379
ssS'11287'
p358
(dp359
g4
F24373462.073337257
sg5
F225612606.27553353
sg6
F1.38657895918886
sg7
F925.64858285904666
ssS'30464'
p360
(dp361
g4
F200775883.12790599
sg5
F183275547.48813668
sg6
F3.0220444334922214
sg7
F91.28364653805528
ssS'584'
p362
(dp363
g4
F37621796.987632543
sg5
F13385696.520622855
sg6
F5.8626866753536788
sg7
F35.579630938477372
ssS'585'
p364
(dp365
g4
F37968370.07820645
sg5
F36933224.549121141
sg6
F2.9103158593900815
sg7
F97.273663507405942
ssS'583'
p366
(dp367
g4
F83620448.714246854
sg5
F33668729.042501815
sg6
F5.3211388907334385
sg7
F40.263750745414853
ssS'12263'
p368
(dp369
g4
F224614695.58074352
sg5
F81257858.238339439
sg6
F5.7858772193238064
sg7
F36.176554712168965
ssS'28797'
p370
(dp371
g4
F248910293.00777784
sg5
F128312913.12819169
sg6
F4.4205490263609377
sg7
F51.549862232568358
ssS'19688'
p372
(dp373
g4
F289540761.62083334
sg5
F60490909.285208076
sg6
F9.1352934404449346
sg7
F20.892018431734197
ssS'16242'
p374
(dp375
g4
F303186576.96423751
sg5
F151294373.15585911
sg6
F4.5266845649413874
sg7
F49.901408786215853
ssS'24567'
p376
(dp377
g4
F277836798.12466669
sg5
F109665835.66368414
sg6
F5.4037223583675953
sg7
F39.471314240555195
ssS'11550'
p378
(dp379
g4
F692015547.49069619
sg5
F212866366.15274093
sg6
F6.5920007019998392
sg7
F30.760344464024168
ssS'3398'
p380
(dp381
g4
F127084494.73811594
sg5
F35208085.041644484
sg6
F7.1859084751280857
sg7
F27.704469466710375
ssS'11692'
p382
(dp383
g4
F246073963.75614297
sg5
F160736235.20457914
sg6
F3.7432251882566927
sg7
F65.320293439848541
ssS'11693'
p384
(dp385
g4
F567473622.44098401
sg5
F177760357.04662028
sg6
F6.49496640779061
sg7
F31.324866921917057
ssS'17302'
p386
(dp387
g4
F2739765.1444444442
sg5
F44301577.627282344
sg6
F1.3100789339402228
sg7
F1616.9844965403265
ssS'2395'
p388
(dp389
g4
F255451440.32809129
sg5
F80700941.386646658
sg6
F6.4503413534414289
sg7
F31.591499849442105
ssS'7493'
p390
(dp391
g4
F8259593.9300000006
sg5
F8873155.2653631344
sg6
F2.7493694143290797
sg7
F107.42846852476116
ssS'11453'
p392
(dp393
g4
F65429179.622597933
sg5
F46757827.272002861
sg6
F3.5252676439657291
sg7
F71.463263855219793
ssS'459'
p394
(dp395
g4
F54530440.691654727
sg5
F38513710.299501449
sg6
F3.5526793459016375
sg7
F70.627909496054258
ssS'4262'
p396
(dp397
g4
F97201551.498127267
sg5
F28952881.91092607
sg6
F6.7680486523810899
sg7
F29.786440097598536
ssS'21234'
p398
(dp399
g4
F13666854.999534702
sg5
F52847685.4847572
sg6
F1.6359696911922084
sg7
F386.68505290029373
ssS'21232'
p400
(dp401
g4
F1333099.3051999998
sg5
F21056496.604870498
sg6
F1.3125087804050881
sg7
F1579.5144834848948
ssS'30013'
p402
(dp403
g4
F51858611.026852094
sg5
F17002651.358790796
sg6
F6.2592478500858375
sg7
F32.786553712337032
ssS'624'
p404
(dp405
g4
F388438348.88733411
sg5
F64092203.231100634
sg6
F11.245516059575822
sg7
F16.499967990979815
ssS'4747'
p406
(dp407
g4
F350000.14279999997
sg5
F4783662.5743428217
sg6
F1.3288312882259568
sg7
F1366.7601778883682
ssS'629'
p408
(dp409
g4
F524767607.60264587
sg5
F136027554.78160492
sg6
F7.5971172703935137
sg7
F25.921484636415475
ssS'31540'
p410
(dp411
g4
F15521315.552026501
sg5
F66980182.177934483
sg6
F1.5914524493421174
sg7
F431.53675958343223
ssS'455'
p412
(dp413
g4
F2100800.657297546
sg5
F27184372.45807467
sg6
F1.335645066998709
sg7
F1294.0005689566206
ssS'23123'
p414
(dp415
g4
F6309752.9666910488
sg5
F26114793.457147084
sg6
F1.6078261991678628
sg7
F413.87980789432027
ssS'31011'
p416
(dp417
g4
F236453635.97329143
sg5
F145616842.58461481
sg6
F3.8970722754721057
sg7
F61.583676641395748
ssS'179'
p418
(dp419
g4
F800343.76001784042
sg5
F1317160.4187114863
sg6
F2.2140317693416942
sg7
F164.57433474362634
ssS'13287'
p420
(dp421
g4
F25816178.879050639
sg5
F79506828.324558452
sg6
F1.7454400478844432
sg7
F307.97287506044051
ssS'198'
p422
(dp423
g4
F71519971.046704665
sg5
F74613071.82168974
sg6
F2.7952355152589825
sg7
F104.3248070849542
ssS'2057'
p424
(dp425
g4
F20100000
sg5
F9354129.7127768844
sg6
F4.766561945512656
sg7
F46.537958770034251
ssS'3691'
p426
(dp427
g4
F573983534.19713199
sg5
F223695762.41422832
sg6
F5.4574278761502244
sg7
F38.972505148100822
ssS'24517'
p428
(dp429
g4
F113504526.52208443
sg5
F61790740.269222699
sg6
F4.2500364370985189
sg7
F54.439009758082335
ssS'2889'
p430
(dp431
g4
F280640901.24374038
sg5
F129506910.23846346
sg6
F4.7967255191435987
sg7
F46.146840914676574
ssS'30060'
p432
(dp433
g4
F456279918.20231378
sg5
F135378104.40811336
sg6
F6.7898765421010445
sg7
F29.669967712251349
ssS'17888'
p434
(dp435
g4
F8963780392.6621437
sg5
F1827506314.4755213
sg6
F9.3314052310975395
sg7
F20.387673887811214
ssS'184'
p436
(dp437
g4
F45545918.100213043
sg5
F57020364.113570377
sg6
F2.5306024809518006
sg7
F125.19313802855072
ssS'23019'
p438
(dp439
g4
F106292073.58402368
sg5
F68120012.842260391
sg6
F3.7919967010101794
sg7
F64.087575437515241
ssS'23156'
p440
(dp441
g4
F43329538.10745652
sg5
F91299423.030765623
sg6
F1.9936834195742079
sg7
F210.70943060677129
ssS'650'
p442
(dp443
g4
F61002859.716669992
sg5
F988383686.92125058
sg6
F1.3098740639433293
sg7
F1620.2251689704951
ssS'11395'
p444
(dp445
g4
F10987851.495777778
sg5
F50956651.734586112
sg6
F1.5647891958419247
sg7
F463.75446331948382
ssS'23729'
p446
(dp447
g4
F25887152.67325113
sg5
F26190782.198051058
sg6
F2.8446946554302466
sg7
F101.1728965662325
ssS'22806'
p448
(dp449
g4
F3264232.5684000002
sg5
F19118387.139754955
sg6
F1.490434607514769
sg7
F585.69316796952512
ssS'22809'
p450
(dp451
g4
F1119332.6176470588
sg5
F26156340.819546182
sg6
F1.2785281680610887
sg7
F2336.7800068695615
ssS'3888'
p452
(dp453
g4
F322911915.03362274
sg5
F106455041.67056817
sg6
F6.2315660682731835
sg7
F32.96720768556456
ssS'2024'
p454
(dp455
g4
F217533283.35763213
sg5
F65733844.892358214
sg6
F6.6886677903364822
sg7
F30.217833279466266
ssS'31426'
p456
(dp457
g4
F512910.04099999985
sg5
F5396283.2775078015
sg6
F1.3650749465036749
sg7
F1052.0915650212048
ssS'2027'
p458
(dp459
g4
F43140000
sg5
F24450222.95792589
sg6
F4.1299306055889318
sg7
F56.676455628015511
ssS'3144'
p460
(dp461
g4
F350000
sg5
F73753517.880639479
sg6
F1.215510724263186
sg7
F21072.433680182708
ssS'19739'
p462
(dp463
g4
F336768898.24026388
sg5
F71867116.784053311
sg6
F8.9688033470280821
sg7
F21.340188229846731
ssS'6811'
p464
(dp465
g4
F68767441.943203673
sg5
F19932508.71662144
sg6
F6.9217184179851179
sg7
F28.985386330182351
ssS'22119'
p466
(dp467
g4
F198827795.01281479
sg5
F62238304.765789405
sg6
F6.4987244989797519
sg7
F31.302617806417881
ssS'22118'
p468
(dp469
g4
F41179583.625624992
sg5
F123810940.34958629
sg6
F1.7585187537512388
sg7
F300.66098160483085
ssS'20016'
p470
(dp471
g4
F292656
sg5
F20428930.609383486
sg6
F1.231377596467202
sg7
F6980.5268333413578
ssS'21584'
p472
(dp473
g4
F25267949.310725924
sg5
F80197840.790862516
sg6
F1.7294842418726766
sg7
F317.38959028550664
ssS'11486'
p474
(dp475
g4
F64203312.655128099
sg5
F53600662.03290198
sg6
F3.191514238371663
sg7
F83.485819993153797
ssS'11529'
p476
(dp477
g4
F60890194.251793474
sg5
F55084509.272145674
sg6
F3.0384569742445691
sg7
F90.46532031801361
ssS'27105'
p478
(dp479
g4
F5079508.9916284401
sg5
F66737159.309284121
sg6
F1.3337112954199635
sg7
F1313.850598931391
ssS'16311'
p480
(dp481
g4
F23634191.719285358
sg5
F23479267.947318226
sg6
F2.8748239196084304
sg7
F99.344493038699028
ssS'11872'
p482
(dp483
g4
F119963.28571428571
sg5
F663511207.96637046
sg6
F1.2079504058040915
sg7
F553095.22744037083
ssS'13263'
p484
(dp485
g4
F203152255.95340565
sg5
F107230857.8693684
sg6
F4.3454586649941076
sg7
F52.783493526137626
ssS'24636'
p486
(dp487
g4
F247159565.64313039
sg5
F92843716.97451295
sg6
F5.6167449876098656
sg7
F37.564282301971858
ssS'2870'
p488
(dp489
g4
F1063294655.9934804
sg5
F442692073.5095045
sg6
F5.1857568721971647
sg7
F41.633997783603917
ssS'15670'
p490
(dp491
g4
F3337214.5288888891
sg5
F170994634.40504393
sg6
F1.2399750301723285
sg7
F5123.8730062096383
ssS'30586'
p492
(dp493
g4
F25077178.197710525
sg5
F311455136.12160295
sg6
F1.3410054403826936
sg7
F1241.9863736903139
ssS'21019'
p494
(dp495
g4
F144391386.94419968
sg5
F108649712.96010353
sg6
F3.4087377156924141
sg7
F75.246671743717926
ssS'21012'
p496
(dp497
g4
F528000
sg5
F458921004.48752916
sg6
F1.2095565060634925
sg7
F86916.856910516886
ssS'7783'
p498
(dp499
g4
F128097875.43263333
sg5
F126294439.89912592
sg6
F2.8875460131601178
sg7
F98.59214251023559
ssS'17938'
p500
(dp501
g4
F21897210.932201192
sg5
F51323402.95611342
sg6
F1.9142902998965114
sg7
F234.38328796768911
ssS'24642'
p502
(dp503
g4
F110000001.66874999
sg5
F61447592.640481956
sg6
F4.1725661482346759
sg7
F55.861447007540058
ssS'20061'
p504
(dp505
g4
F1144981739.9097736
sg5
F211996790.25241673
sg6
F10.152926685608636
sg7
F18.515298791500591
ssS'30123'
p506
(dp507
g4
F242453726.04232404
sg5
F121256752.63309668
sg6
F4.5193234901972961
sg7
F50.012327965596803
ssS'27359'
p508
(dp509
g4
F221487535.83642626
sg5
F161178290.24993506
sg6
F3.4836244687658806
sg7
F72.770817392166492
ssS'30539'
p510
(dp511
g4
F11897006.956890846
sg5
F70220978.668558553
sg6
F1.4882558839592008
sg7
F590.24071283648345
ssS'30536'
p512
(dp513
g4
F12969213.257697044
sg5
F93062888.294647306
sg6
F1.4384646440970357
sg7
F717.56772323422013
ssS'16119'
p514
(dp515
g4
F5487348.6381818177
sg5
F40341455.317219093
sg6
F1.4329376016025885
sg7
F735.17208359091728
ssS'4302'
p516
(dp517
g4
F695995995.90199065
sg5
F68147340.182872549
sg6
F18.123051577489584
sg7
F9.7913408387580692
ssS'12486'
p518
(dp519
g4
F272245682.88279009
sg5
F118978212.89270045
sg6
F4.9974660141351679
sg7
F43.702515916083094
ssS'22043'
p520
(dp521
g4
F124390232.28701755
sg5
F19364685.310281221
sg6
F11.846638287535235
sg7
F15.567689644311637
ssS'25266'
p522
(dp523
g4
F224753794.83351105
sg5
F105944845.36187047
sg6
F4.7212456173015651
sg7
F47.138178663612926
ssS'23513'
p524
(dp525
g4
F1945945.2535365857
sg5
F34934523.442364357
sg6
F1.2999081517543229
sg7
F1795.2469823533786
ssS'21080'
p526
(dp527
g4
F61671561.083903551
sg5
F52433962.414608836
sg6
F3.1556857968857592
sg7
F85.021299109443575
ssS'24499'
p528
(dp529
g4
F57544900.402633093
sg5
F46262749.690619558
sg6
F3.2678057693647609
sg7
F80.394178053877923
ssS'24552'
p530
(dp531
g4
F87510744.721000001
sg5
F133428512.63126436
sg6
F2.2939194699667755
sg7
F152.47100576810135
ssS'16634'
p532
(dp533
g4
F468936471.7745145
sg5
F231239318.12760115
sg6
F4.5663940628877704
sg7
F49.311438125629799
ssS'24490'
p534
(dp535
g4
F146133811.0676378
sg5
F205234179.50731641
sg6
F2.3869541578819984
sg7
F140.44263816012034
ssS'24558'
p536
(dp537
g4
F323127307.42653549
sg5
F408685320.03103721
sg6
F2.5171617428112145
sg7
F126.47811269369542
ssS'24492'
p538
(dp539
g4
F132252674.79126959
sg5
F122542331.07049045
sg6
F2.9951375096549153
sg7
F92.657733587540164
ssS'29982'
p540
(dp541
g4
F310770526.12704772
sg5
F70332204.025041014
sg6
F8.5259483252028367
sg7
F22.631555476495908
ssS'24494'
p542
(dp543
g4
F87066000.461811692
sg5
F129421178.69194871
sg6
F2.3218626201919168
sg7
F148.64720787158998
ssS'30836'
p544
(dp545
g4
F185830421.57524016
sg5
F84874324.88345854
sg6
F4.8339610264695541
sg7
F45.672998082875303
ssS'17670'
p546
(dp547
g4
F74272122.849092275
sg5
F449915162.9863748
sg6
F1.4810642727682413
sg7
F605.7658590162049
ssS'692'
p548
(dp549
g4
F110892857.29714285
sg5
F109076346.46768022
sg6
F2.8914778728965156
sg7
F98.361922603729838
ssS'693'
p550
(dp551
g4
F158071874.99906251
sg5
F682214518.62402654
sg6
F1.591409540415506
sg7
F431.58501069723673
ssS'24395'
p552
(dp553
g4
F45595913.888788804
sg5
F18909501.273460194
sg6
F5.2013037673577687
sg7
F41.471920750577809
ssS'691'
p554
(dp555
g4
F3241324.5975849056
sg5
F33798915.147860482
sg6
F1.3664852291251879
sg7
F1042.7500896714844
ssS'16688'
p556
(dp557
g4
F147281327.72094062
sg5
F80171814.875847474
sg6
F4.2502899885534395
sg7
F54.434473206102531
ssS'16689'
p558
(dp559
g4
F82763283.373999998
sg5
F49316798.249755189
sg6
F3.9871549008643066
sg7
F59.587773997434248
ssS'2488'
p560
(dp561
g4
F898440480.64475203
sg5
F208638143.53572586
sg6
F8.3397942233921629
sg7
F23.222255456031977
ssS'2486'
p562
(dp563
g4
F17632780.794210445
sg5
F9549393.8428678773
sg6
F4.2658761377090491
sg7
F54.157049612976124
ssS'28426'
p564
(dp565
g4
F918044018.36479998
sg5
F170785957.90415981
sg6
F10.110639243283604
sg7
F18.60324281708845
ssS'3124'
p566
(dp567
g4
F1200001.101
sg5
F197396266.05301511
sg6
F1.2177195111377224
sg7
F16449.673745175598
ssS'1549'
p568
(dp569
g4
F30355537.193809923
sg5
F233491837.49553582
sg6
F1.4229740819075469
sg7
F769.19026668765162
ssS'27921'
p570
(dp571
g4
F40081475.290999994
sg5
F218494397.75379166
sg6
F1.5114789935848765
sg7
F545.12563763553135
ssS'27920'
p572
(dp573
g4
F452634740.33626324
sg5
F134712823.07300103
sg6
F6.7726283295383549
sg7
F29.761927458975556
ssS'2466'
p574
(dp575
g4
F269213983.13234377
sg5
F54046880.404878318
sg6
F9.4576032819779687
sg7
F20.075807272725964
ssS'27924'
p576
(dp577
g4
F158606595.877482
sg5
F335038941.89488202
sg6
F1.9917129671241638
sg7
F211.2389715202562
ssS'17794'
p578
(dp579
g4
F106209513.48716797
sg5
F195298072.98566976
sg6
F2.1083711878794409
sg7
F183.88001844040582
ssS'1319'
p580
(dp581
g4
F323216353.76560479
sg5
F221664258.36848468
sg6
F3.6226786267223288
sg7
F68.580768202476136
ssS'2262'
p582
(dp583
g4
F82848182.474614426
sg5
F40421674.356152184
sg6
F4.6022864119271327
sg7
F48.790055676282115
ssS'12824'
p584
(dp585
g4
F36168712.463160947
sg5
F68072474.189849824
sg6
F2.0876576375776907
sg7
F188.20817649835874
ssS'17404'
p586
(dp587
g4
F53925543.569595411
sg5
F35389930.836420707
sg6
F3.731359943101821
sg7
F65.627397507355766
ssS'17407'
p588
(dp589
g4
F297936059.20001054
sg5
F129612224.44744377
sg6
F5.0148147489004655
sg7
F43.503369412707592
ssS'27074'
p590
(dp591
g4
F2302055.0914821429
sg5
F149503120.182733
sg6
F1.2331538758958096
sg7
F6494.3328565815382
ssS'27073'
p592
(dp593
g4
F601941.99866666668
sg5
F29572322.083742861
sg6
F1.2413636664483578
sg7
F4912.8192000636463
ssS'27072'
p594
(dp595
g4
F20821.310977168952
sg5
F8643195.8338189349
sg6
F1.2116408203979054
sg7
F41511.295053882051
ssS'11400'
p596
(dp597
g4
F424150455.7081629
sg5
F84221070.33882989
sg6
F9.5487569160286387
sg7
F19.856413969475557
ssS'2410'
p598
(dp599
g4
F379016613.66956973
sg5
F144119707.01602355
sg6
F5.5633647288387849
sg7
F38.024641089128743
ssS'9574'
p600
(dp601
g4
F13486922.837718749
sg5
F23124647.66154658
sg6
F2.1736177669750871
sg7
F171.45977581241956
ssS'2061'
p602
(dp603
g4
F15000000
sg5
F14377928.134117233
sg6
F2.9355541490100912
sg7
F95.852854227448219
ssS'499'
p604
(dp605
g4
F11776064.952371299
sg5
F39348762.142182164
sg6
F1.7033220286406117
sg7
F334.14185724458542
ssS'9091'
p606
(dp607
g4
F27500.055
sg5
F213734.61159427848
sg6
F1.4207508148818213
sg7
F777.21521500330994
ssS'11569'
p608
(dp609
g4
F11617434.463153847
sg5
F60336204.739598729
sg6
F1.5265525563542837
sg7
F519.35911436352478
ssS'20508'
p610
(dp611
g4
F429401335.28200006
sg5
F434038224.4812994
sg6
F2.8462015999134427
sg7
F101.07984973923152
ssS'20509'
p612
(dp613
g4
F3084421714.0654545
sg5
F594952187.50773787
sg6
F9.79415033610662
sg7
F19.288937851612868
ssS'3721'
p614
(dp615
g4
F16773961.884958334
sg5
F191314479.84782591
sg6
F1.352866219153299
sg7
F1140.5443815833562
ssS'20502'
p616
(dp617
g4
F190750676.78215384
sg5
F113446169.91569397
sg6
F3.992493891131522
sg7
F59.473534683840093
ssS'11561'
p618
(dp619
g4
F23307083.820374779
sg5
F47538502.667524487
sg6
F2.0196712739422584
sg7
F203.96589738080783
ssS'11563'
p620
(dp621
g4
F102563399.41805129
sg5
F75460485.434749529
sg6
F3.458763815523568
sg7
F73.574477701514624
ssS'20506'
p622
(dp623
g4
F244469732.63995001
sg5
F48929789.823345982
sg6
F9.4828072292309944
sg7
F20.014661649509293
ssS'4286'
p624
(dp625
g4
F109297040.72718975
sg5
F74846322.51894784
sg6
F3.6262417382231771
sg7
F68.479733779588386
ssS'4288'
p626
(dp627
g4
F138875686.79689673
sg5
F78459359.918517783
sg6
F4.1392590738477031
sg7
F56.496109382532332
ssS'3576'
p628
(dp629
g4
F38656929.24305135
sg5
F31523853.789072163
sg6
F3.238663026696547
sg7
F81.547744237182613
ssS'3478'
p630
(dp631
g4
F391519609.59437501
sg5
F524171908.89390713
sg6
F2.444749320579283
sg7
F133.88139343440895
ssS'9784'
p632
(dp633
g4
F6162560.7787131155
sg5
F15836873.312385734
sg6
F1.8521410247291956
sg7
F256.98526766810789
ssS'24694'
p634
(dp635
g4
F1101777022.7345133
sg5
F211049913.38992423
sg6
F9.8540044978506689
sg7
F19.155410671581894
ssS'13224'
p636
(dp637
g4
F25695180.493606381
sg5
F39480679.377620474
sg6
F2.2855833212575378
sg7
F153.65013445787733
ssS'15630'
p638
(dp639
g4
F235111826.53031674
sg5
F390731609.7954101
sg6
F2.204249814458147
sg7
F166.18968750388524
ssS'15632'
p640
(dp641
g4
F1683331599.1219268
sg5
F239823773.0154615
sg6
F12.832890258219647
sg7
F14.246971490380171
ssS'22782'
p642
(dp643
g4
F192963161.75368237
sg5
F72178007.121269196
sg6
F5.6355119305339088
sg7
F37.40507072194665
ssS'15635'
p644
(dp645
g4
F3061282.0443125004
sg5
F87958275.266086221
sg6
F1.2652945556680248
sg7
F2873.2496383174584
ssS'27421'
p646
(dp647
g4
F49193899.219968751
sg5
F58032328.209255055
sg6
F2.6116464347813206
sg7
F117.96651440408409
ssS'27335'
p648
(dp649
g4
F14931290.68575
sg5
F121929296.39481604
sg6
F1.410472338548691
sg7
F816.60252258823084
ssS'3311'
p650
(dp651
g4
F606291.95726063824
sg5
F11095970.985416213
sg6
F1.2981493661585695
sg7
F1830.1365955026477
ssS'20349'
p652
(dp653
g4
F115109224.51196018
sg5
F38888516.936078414
sg6
F6.1101013027053765
sg7
F33.784014357631079
ssS'31979'
p654
(dp655
g4
F160360581.48800001
sg5
F82206620.843014792
sg6
F4.4384897013988667
sg7
F51.263608600201053
ssS'27255'
p656
(dp657
g4
F8523290.2444615401
sg5
F11298896.604858665
sg6
F2.4570342654711625
sg7
F132.56496353859032
ssS'27252'
p658
(dp659
g4
F181632761.47191375
sg5
F245206504.87972862
sg6
F2.434487362965764
sg7
F135.00125356935973
ssS'4051'
p660
(dp661
g4
F5041586808.7328014
sg5
F1660332068.7160227
sg6
F6.2368259787702645
sg7
F32.932727962554829
ssS'26306'
p662
(dp663
g4
F19500007.700000003
sg5
F18552771.338916223
sg6
F2.9484572471194426
sg7
F95.14237955360511
ssS'27397'
p664
(dp665
g4
F21612558.425000001
sg5
F79806849.321644083
sg6
F1.6561798971609309
sg7
F369.26146248992302
ssS'27258'
p666
(dp667
g4
F367835286.82116127
sg5
F75827582.859380633
sg6
F9.2419988597179685
sg7
F20.614548298148303
ssS'25602'
p668
(dp669
g4
F33814979.387654781
sg5
F24065581.135163091
sg6
F3.5348698288897267
sg7
F71.168403976460752
ssS'30614'
p670
(dp671
g4
F50970466.263600007
sg5
F146061474.29071495
sg6
F1.7856237325616087
sg7
F286.56099305692078
ssS'8815'
p672
(dp673
g4
F15079788.31842857
sg5
F12065167.415918661
sg6
F3.2777272373751374
sg7
F80.008864588464888
ssS'14295'
p674
(dp675
g4
F79766721.358518511
sg5
F25643396.402245812
sg6
F6.3595892474400992
sg7
F32.147988491327503
ssS'25606'
p676
(dp677
g4
F185307332.68451229
sg5
F258599823.54565191
sg6
F2.3944818349472805
sg7
F139.5518567988461
ssS'18056'
p678
(dp679
g4
F33677163.114823177
sg5
F19732142.533810422
sg6
F4.0343899714346598
sg7
F58.592056779049827
ssS'30656'
p680
(dp681
g4
F126535278.28827585
sg5
F60226040.263243288
sg6
F4.6874308231320727
sg7
F47.596244365966314
ssS'30655'
p682
(dp683
g4
F60311518.140101515
sg5
F40720486.505244523
sg6
F3.6607312239770775
sg7
F67.516931692305064
ssS'31782'
p684
(dp685
g4
F178225.88162500001
sg5
F50912028.721476845
sg6
F1.2134489104483965
sg7
F28566.01311620912
ssS'30306'
p686
(dp687
g4
F905996655.4875443
sg5
F935355998.11985886
sg6
F2.8119085934594255
sg7
F103.24055750697174
ssS'18058'
p688
(dp689
g4
F47048750.775949366
sg5
F117371506.12795958
sg6
F1.8715619732826687
sg7
F249.46784811969582
ssS'19694'
p690
(dp691
g4
F445115981.54773748
sg5
F111797461.18723661
sg6
F7.8019054354538984
sg7
F25.116478810421377
ssS'19695'
p692
(dp693
g4
F108733157.05182002
sg5
F116944767.35078889
sg6
F2.7475975525002596
sg7
F107.55207567003262
ssS'18580'
p694
(dp695
g4
F248245565.15253133
sg5
F102378889.29426071
sg6
F5.223667948973568
sg7
F41.240974126307272
ssS'2801'
p696
(dp697
g4
F122747920.34699768
sg5
F152787382.93790659
sg6
F2.5382619500043626
sg7
F124.4724819011108
ssS'19699'
p698
(dp699
g4
F355961133.53097552
sg5
F248597086.48570573
sg6
F3.5791939545067439
sg7
F69.83826689721252
ssS'31658'
p700
(dp701
g4
F6789041.7688333336
sg5
F26973030.263157323
sg6
F1.6245234085352036
sg7
F397.30246449481655
ssS'1422'
p702
(dp703
g4
F85906236.311126083
sg5
F19854196.628317166
sg6
F8.3739814081809012
sg7
F23.111473020900771
ssS'1162'
p704
(dp705
g4
F2650000.6784000001
sg5
F77117572.702292159
sg6
F1.2645646910248027
sg7
F2910.0963381207021
ssS'11284'
p706
(dp707
g4
F874217.42333333334
sg5
F12569182.110034002
sg6
F1.3228468221706287
sg7
F1437.7638530822849
ssS'2567'
p708
(dp709
g4
F169642685.19782314
sg5
F101051560.25836241
sg6
F3.9881104413466604
sg7
F59.567295896386284
ssS'3363'
p710
(dp711
g4
F595437.06518269237
sg5
F9680023.7034588382
sg6
F1.3095297745276147
sg7
F1625.7005600564701
ssS'30378'
p712
(dp713
g4
F2939337571.1145978
sg5
F1638108757.1067822
sg6
F4.1795304174300911
sg7
F55.730541915456513
ssS'30270'
p714
(dp715
g4
F54017186.452350907
sg5
F74303446.854387403
sg6
F2.4117090892594382
sg7
F137.55519628911293
ssS'508'
p716
(dp717
g4
F4188042.8740000008
sg5
F22954344.206845518
sg6
F1.509834413178851
sg7
F548.09238819758832
ssS'30372'
p718
(dp719
g4
F360614692.82816553
sg5
F460243455.39109975
sg6
F2.5053687289751152
sg7
F127.62748289083379
ssS'501'
p720
(dp721
g4
F8183114.8599244868
sg5
F3131840.6421029698
sg6
F5.5352144452306318
sg7
F38.271986837685304
ssS'31539'
p722
(dp723
g4
F52500.009545454559
sg5
F1244106.0038736206
sg6
F1.2775427922892231
sg7
F2369.7252908048949
ssS'4276'
p724
(dp725
g4
F105105854.85412779
sg5
F127522760.0595931
sg6
F2.5727484253055559
sg7
F121.32793195638514
ssS'2580'
p726
(dp727
g4
F71450440.641072035
sg5
F28082081.187161513
sg6
F5.4217047726238512
sg7
F39.302880339437714
ssS'20861'
p728
(dp729
g4
F11676298.019285714
sg5
F44929637.297704428
sg6
F1.6380751895827037
sg7
F384.79351266552334
ssS'23135'
p730
(dp731
g4
F117898701.3153026
sg5
F152569683.49456251
sg6
F2.4875191088207438
sg7
F129.40743349372229
ssS'23133'
p732
(dp733
g4
F83443619.759782612
sg5
F133623232.47434883
sg6
F2.2419249823893401
sg7
F160.13594911033729
ssS'1355'
p734
(dp735
g4
F135335938.53455672
sg5
F54409360.994299874
sg6
F5.3273355778476468
sg7
F40.203187404214127
ssS'32104'
p736
(dp737
g4
F14158805.324985715
sg5
F21842209.718815446
sg6
F2.281280600282301
sg7
F154.26590886358898
ssS'21638'
p738
(dp739
g4
F536430655.07728249
sg5
F75256716.845308349
sg6
F13.013379068307973
sg7
F14.029160364533281
ssS'32102'
p740
(dp741
g4
F13596434.561785715
sg5
F81720755.805555999
sg6
F1.4832115538888215
sg7
F601.04548316836861
ssS'32108'
p742
(dp743
g4
F12861489.09605814
sg5
F237061579.11651292
sg6
F1.2975084982782275
sg7
F1843.1892088542754
ssS'3723'
p744
(dp745
g4
F6613431.2139574457
sg5
F15466186.960143231
sg6
F1.9158707188692485
sg7
F233.86025286695826
ssS'7705'
p746
(dp747
g4
F5499783.5173510639
sg5
F22335793.484479602
sg6
F1.6154710927875486
sg7
F406.12132121224829
ssS'23003'
p748
(dp749
g4
F73625764.779693797
sg5
F107270857.29955532
sg6
F2.3444207474510335
sg7
F145.69744385071698
ssS'18036'
p750
(dp751
g4
F48068287.841708332
sg5
F18857491.30511371
sg6
F5.429465908343821
sg7
F39.230628241248212
ssS'2514'
p752
(dp753
g4
F4639120.3474473683
sg5
F4203154.6548088919
sg6
F3.0356868778143848
sg7
F90.602406060054847
ssS'13246'
p754
(dp755
g4
F111147080.6374433
sg5
F66946364.474693939
sg6
F3.9574155721208557
sg7
F60.232229304402438
ssS'23731'
p756
(dp757
g4
F7423218.5940000005
sg5
F20362285.331207048
sg6
F1.8114468943067084
sg7
F274.30534441846248
ssS'5299'
p758
(dp759
g4
F70518514.468613192
sg5
F105953920.30226953
sg6
F2.3099783018886839
sg7
F150.24979057014616
ssS'2637'
p760
(dp761
g4
F71362773.909156367
sg5
F24359459.763504591
sg6
F6.0597373737279998
sg7
F34.134687357464244
ssS'3532'
p762
(dp763
g4
F191483746.5348089
sg5
F175046745.78102028
sg6
F3.0194178993839671
sg7
F91.415981224912684
ssS'27185'
p764
(dp765
g4
F935413.0959999999
sg5
F6080338.6795722852
sg6
F1.4624513712761464
sg7
F650.01641580312935
ssS'1810'
p766
(dp767
g4
F4226117.9029486803
sg5
F5250585.7308611451
sg6
F2.5407373987571815
sg7
F124.24134516449871
ssS'879'
p768
(dp769
g4
F12150.028038461538
sg5
F4743557.3417485626
sg6
F1.2118932185767368
sg7
F39041.534116074363
ssS'3184'
p770
(dp771
g4
F16792012.041923076
sg5
F5809590.5260807294
sg6
F5.9948520419538909
sg7
F34.597346116572915
ssS'12211'
p772
(dp773
g4
F247969217.42897195
sg5
F118280109.6122916
sg6
F4.6798971439924699
sg7
F47.69951320517098
ssS'12215'
p774
(dp775
g4
F312162791.99941367
sg5
F158304854.26404637
sg6
F4.4736147117761975
sg7
F50.712275236295199
ssS'12219'
p776
(dp777
g4
F636745966.60735345
sg5
F123555783.64038113
sg6
F9.7431236997314059
sg7
F19.404250693365011
ssS'3189'
p778
(dp779
g4
F405070096.19953847
sg5
F576018620.18022168
sg6
F2.3723617952600704
sg7
F142.20220786095095
ssS'28606'
p780
(dp781
g4
F3250714667.1546526
sg5
F197330915.94023126
sg6
F28.491659432328557
sg7
F6.0703856273228318
ssS'3913'
p782
(dp783
g4
F967571.44714285713
sg5
F18284744.742494818
sg6
F1.2952942308707964
sg7
F1889.7565442312152
ssS'27897'
p784
(dp785
g4
F207821649.90900004
sg5
F78646539.253168762
sg6
F5.5842385838411532
sg7
F37.843284993457679
ssS'31179'
p786
(dp787
g4
F94421039.644831508
sg5
F30655638.012921944
sg6
F6.3089745777558148
sg7
F32.466956653129799
ssS'29266'
p788
(dp789
g4
F245912809.21672413
sg5
F283591282.832048
sg6
F2.6438437075530574
sg7
F115.32188328673747
ssS'29340'
p790
(dp791
g4
F454619705.93140543
sg5
F149217979.97150767
sg6
F6.2537010424093777
sg7
F32.822593922935269
ssS'26368'
p792
(dp793
g4
F147474015.29961818
sg5
F150365172.88682279
sg6
F2.8320499194419035
sg7
F101.96045220666892
ssS'4019'
p794
(dp795
g4
F10165631.079999998
sg5
F122997619.2454658
sg6
F1.3445379211396002
sg7
F1209.9358935762777
ssS'3229'
p796
(dp797
g4
F562000.19999999995
sg5
F319075374.88836122
sg6
F1.210568165277627
sg7
F56774.957533531349
ssS'27115'
p798
(dp799
g4
F6250034.0200000005
sg5
F36691924.478861101
sg6
F1.4897725614087574
sg7
F587.06759613543829
ssS'27116'
p800
(dp801
g4
F705846044.61498213
sg5
F65069974.151546203
sg6
F19.1737507588543
sg7
F9.2187205195773139
ssS'4155'
p802
(dp803
g4
F61710335.304230765
sg5
F88217152.734205812
sg6
F2.3662397569211118
sg7
F142.95361109171901
ssS'4158'
p804
(dp805
g4
F56415000.100999996
sg5
F149633577.88887736
sg6
F1.8320899124383012
sg7
F265.23721992553004
ssS'24641'
p806
(dp807
g4
F100937886.58085108
sg5
F78823077.556392998
sg6
F3.328575786467642
sg7
F78.090675589146443
ssS'3987'
p808
(dp809
g4
F15345914.060416
sg5
F6636315.8576683626
sg6
F5.0375750810382121
sg7
F43.244839190038206
ssS'21078'
p810
(dp811
g4
F43925852.640849054
sg5
F82537318.268570736
sg6
F2.0890940973643959
sg7
F187.90145963339768
ssS'15601'
p812
(dp813
g4
F1319856775.8154697
sg5
F739078248.54825175
sg6
F4.1653967267720216
sg7
F55.996852241154308
ssS'22548'
p814
(dp815
g4
F1927253292.5062571
sg5
F274116396.63799405
sg6
F12.852349197354155
sg7
F14.223164007753491
ssS'15605'
p816
(dp817
g4
F2115218074.7188017
sg5
F548172825.52574933
sg6
F7.5985521478054192
sg7
F25.915664776012452
ssS'23113'
p818
(dp819
g4
F244207299.94116497
sg5
F178822352.15452859
sg6
F3.4694879107420937
sg7
F73.225637479965144
ssS'2969'
p820
(dp821
g4
F289997080.12090021
sg5
F179265689.39773142
sg6
F3.886948254680453
sg7
F61.816377365935992
ssS'219'
p822
(dp823
g4
F3157906.0354032251
sg5
F7053443.9273869507
sg6
F1.9491702260165549
sg7
F223.35825855205709
ssS'10213'
p824
(dp825
g4
F1904050257.438693
sg5
F219095757.05614722
sg6
F15.601233307201326
sg7
F11.506826366593515
ssS'10212'
p826
(dp827
g4
F1576968302.4176128
sg5
F194862456.52321133
sg6
F14.611182708687251
sg7
F12.356777002078754
ssS'22178'
p828
(dp829
g4
F489907.9510714286
sg5
F7764707.4068963369
sg6
F1.3121503683376012
sg7
F1584.9319019858574
ssS'1076'
p830
(dp831
g4
F121.79999999999998
sg5
F15561939.952324567
sg6
F1.2076639187209814
sg7
F12776633.786801782
ssS'27415'
p832
(dp833
g4
F44524275.634715274
sg5
F163415205.97289607
sg6
F1.6589130490012625
sg7
F367.02496254758239
ssS'27169'
p834
(dp835
g4
F105079568.50924242
sg5
F63446608.251686335
sg6
F3.9507047651737301
sg7
F60.379585824151725
ssS'16461'
p836
(dp837
g4
F81321287.451018095
sg5
F49918622.354204074
sg6
F3.9058010866046162
sg7
F61.384446703787546
ssS'16463'
p838
(dp839
g4
F187708849.54853332
sg5
F69714011.434881836
sg6
F5.6671813819469721
sg7
F37.139437806237702
ssS'31966'
p840
(dp841
g4
F59754948.274338223
sg5
F129487551.95134792
sg6
F1.9719623097200762
sg7
F216.69762202263735
ssS'23071'
p842
(dp843
g4
F130439177.59357031
sg5
F117396821.27449799
sg6
F3.0478981780813332
sg7
F90.001197063883353
ssS'25293'
p844
(dp845
g4
F15586728.094499998
sg5
F11510748.97009108
sg6
F3.4503749695721315
sg7
F73.849680961284065
ssS'3130'
p846
(dp847
g4
F363696848.52523237
sg5
F99548971.735632509
sg6
F7.2586518361980863
sg7
F27.371414445656395
ssS'3645'
p848
(dp849
g4
F466409157.07326072
sg5
F90890508.020859063
sg6
F9.7067520340518492
sg7
F19.487290642233795
ssS'29996'
p850
(dp851
g4
F623038825.5351423
sg5
F1803923652.1540942
sg6
F1.7796843923131955
sg7
F289.53631430668275
ssS'3138'
p852
(dp853
g4
F297371449.66301703
sg5
F51131972.040256299
sg6
F10.839977208091831
sg7
F17.194647333561893
ssS'24268'
p854
(dp855
g4
F57460015.408317313
sg5
F28909663.051545277
sg6
F4.499554980741741
sg7
F50.312661502281145
ssS'1557'
p856
(dp857
g4
F8984902.014915878
sg5
F14649116.546111628
sg6
F2.2234934305219403
sg7
F163.04147248119747
ssS'26084'
p858
(dp859
g4
F190111044.74533761
sg5
F86402259.472352147
sg6
F4.8518887303157285
sg7
F45.448311321465781
ssS'28435'
p860
(dp861
g4
F1516195360.783169
sg5
F1122395090.0862439
sg6
F3.4450006140369913
sg7
F74.027075871442236
ssS'1565'
p862
(dp863
g4
F15623481.05625
sg5
F47795319.564794414
sg6
F1.7490492611907924
sg7
F305.91978441113434
ssS'17367'
p864
(dp865
g4
F14910749.070363166
sg5
F29324044.175897665
sg6
F2.049821511141166
sg7
F196.66378957568662
ssS'17249'
p866
(dp867
g4
F35656000.053000003
sg5
F275427246.13871145
sg6
F1.422063494152626
sg7
F772.45693776449752
ssS'29047'
p868
(dp869
g4
F1943964.367816092
sg5
F58923535.650819354
sg6
F1.2622926249465682
sg7
F3031.1016305826547
ssS'2398'
p870
(dp871
g4
F569524667.81065571
sg5
F261339889.2960299
sg6
F4.8170200336110698
sg7
F45.887369602560398
ssS'31564'
p872
(dp873
g4
F758213.60849999997
sg5
F18983255.363244772
sg6
F1.2738033155532302
sg7
F2503.681700042287
ssS'984'
p874
(dp875
g4
F7000041.7779999999
sg5
F13510856.426267467
sg6
F2.0657594672526551
sg7
F193.01108271567614
ssS'16868'
p876
(dp877
g4
F4080065.0219999999
sg5
F72348622.021705568
sg6
F1.3010540527939858
sg7
F1773.2222803214327
ssS'16869'
p878
(dp879
g4
F228993334.030312
sg5
F163427762.87313211
sg6
F3.5283640953624955
sg7
F71.36791276705857
ssS'27911'
p880
(dp881
g4
F66016819.38964843
sg5
F19890655.775003813
sg6
F6.70470430477822
sg7
F30.129679010441251
ssS'15592'
p882
(dp883
g4
F373297959.04019779
sg5
F372402087.97584176
sg6
F2.8678798382365041
sg7
F99.760011796833965
ssS'12092'
p884
(dp885
g4
F21018474.014791943
sg5
F28428251.40774934
sg6
F2.4321980478427183
sg7
F135.25364109565089
ssS'421'
p886
(dp887
g4
F4357409.8551382981
sg5
F40882253.64255216
sg6
F1.3841807599190541
sg7
F938.22373845194807
ssS'28336'
p888
(dp889
g4
F82925813.744020268
sg5
F225703895.31585833
sg6
F1.8161713586492756
sg7
F272.1756774224404
ssS'12098'
p890
(dp891
g4
F202568386.85263395
sg5
F34865436.710693493
sg6
F10.830441149915531
sg7
F17.211687002304892
ssS'4961'
p892
(dp893
g4
F9797884.632057691
sg5
F81256314.358717442
sg6
F1.4073608852309261
sg7
F829.32507791380772
ssS'3812'
p894
(dp895
g4
F76469555.294716299
sg5
F63258446.117742382
sg6
F3.2097912289919837
sg7
F82.723700790389259
ssS'22613'
p896
(dp897
g4
F282981687.74480003
sg5
F174150244.80616882
sg6
F3.8989298148399838
sg7
F61.541171159888577
ssS'20532'
p898
(dp899
g4
F137535634.87403336
sg5
F42556998.687701397
sg6
F6.5602991649722329
sg7
F30.942525351105299
ssS'22559'
p900
(dp901
g4
F772895668.88236892
sg5
F193828549.98430857
sg6
F7.8119629792121854
sg7
F25.07822954482209
ssS'20530'
p902
(dp903
g4
F267997428.55106664
sg5
F19982575.458257988
sg6
F23.420467105634881
sg7
F7.4562564149567319
ssS'31318'
p904
(dp905
g4
F10400003.4736
sg5
F29116106.615385111
sg6
F1.7992461535753919
sg7
F279.96247010200716
ssS'28809'
p906
(dp907
g4
F297220584.1750834
sg5
F75394837.818416625
sg6
F7.7368773685905907
sg7
F25.366627290525699
ssS'28808'
p908
(dp909
g4
F217214029.87935525
sg5
F186018766.69732836
sg6
F3.1416469444625319
sg7
F85.638467644399711
ssS'17732'
p910
(dp911
g4
F1213504138.8740542
sg5
F174636637.0388658
sg6
F12.716459331489721
sg7
F14.391103535988087
ssS'3265'
p912
(dp913
g4
F225864199.27851248
sg5
F102960115.29378484
sg6
F4.8409641402042043
sg7
F45.584964603808245
ssS'3264'
p914
(dp915
g4
F13440000
sg5
F221462901.88427708
sg6
F1.3081640722096017
sg7
F1647.7894485437282
ssS'11219'
p916
(dp917
g4
F86568912.157438233
sg5
F19160954.383721378
sg6
F8.6905395572166064
sg7
F22.133758997542188
ssS'4119'
p918
(dp919
g4
F10255036.897368422
sg5
F43393294.949709184
sg6
F1.5990673893822929
sg7
F423.14128543842173
ssS'27453'
p920
(dp921
g4
F330595928.75270975
sg5
F67356129.936468259
sg6
F9.3367952349346535
sg7
F20.374155904034609
ssS'24445'
p922
(dp923
g4
F79061967.081271768
sg5
F60418763.288244218
sg6
F3.3749569929382215
sg7
F76.419504242965189
ssS'22977'
p924
(dp925
g4
F345616001.77529472
sg5
F199013582.57167912
sg6
F4.0839602241991368
sg7
F57.582282518582439
ssS'28659'
p926
(dp927
g4
F3402125643.5139999
sg5
F346367648.23237652
sg6
F17.475775340892792
sg7
F10.180918770378481
ssS'2929'
p928
(dp929
g4
F669594811.02151096
sg5
F234150198.30569416
sg6
F5.9439815268371268
sg7
F34.968938595638548
ssS'16640'
p930
(dp931
g4
F1644060564.291296
sg5
F653210096.12224042
sg6
F5.3762428548290933
sg7
F39.731510523994544
ssS'16641'
p932
(dp933
g4
F3233870158.2659225
sg5
F1598893900.2251582
sg6
F4.5575166076312588
sg7
F49.442118018817517
ssS'16646'
p934
(dp935
g4
F2685995131.6941142
sg5
F743076336.41711307
sg6
F7.1944715878009253
sg7
F27.66484300916953
ssS'23950'
p936
(dp937
g4
F248745276.125
sg5
F24019033.872620393
sg6
F18.360006246572944
sg7
F9.6560763873764159
ssS'29095'
p938
(dp939
g4
F2224425
sg5
F103852881.92026047
sg6
F1.2431260591640911
sg7
F4668.7517862036475
ssS'22135'
p940
(dp941
g4
F50967983.562158726
sg5
F36808613.470587656
sg6
F3.5010121006641346
sg7
F72.219089118362291
ssS'18594'
p942
(dp943
g4
F76309376.924069628
sg5
F43297790.387287907
sg6
F4.126667998341186
sg7
F56.739803327670536
ssS'3214'
p944
(dp945
g4
F839145741.84949994
sg5
F152143178.90697989
sg6
F10.342668076114423
sg7
F18.130721675552117
ssS'30544'
p946
(dp947
g4
F55620123.378694445
sg5
F38946594.01326739
sg6
F3.572954710421671
sg7
F70.022487631133288
ssS'30543'
p948
(dp949
g4
F30255777.850142047
sg5
F76977487.401752964
sg6
F1.8586330574294734
sg7
F254.42243720530081
ssS'30542'
p950
(dp951
g4
F9689098.6371180117
sg5
F82708539.656699017
sg6
F1.4016758613758757
sg7
F853.62470498391349
ssS'20183'
p952
(dp953
g4
F2508646885.8147373
sg5
F287728549.33952653
sg6
F15.648111207774177
sg7
F11.46947188807246
ssS'24613'
p954
(dp955
g4
F97503425.411012188
sg5
F39004962.982962444
sg6
F5.3478808791714831
sg7
F40.003684812653937
ssS'16008'
p956
(dp957
g4
F88630380.733688459
sg5
F75621364.103422537
sg6
F3.1488164575512774
sg7
F85.322169979891356
ssS'568'
p958
(dp959
g4
F51706000.334375903
sg5
F43120393.98084721
sg6
F3.1936666728230501
sg7
F83.395338455872221
ssS'18044'
p960
(dp961
g4
F15847191.288686439
sg5
F19468370.823986199
sg6
F2.5558286799770258
sg7
F122.85060784168722
ssS'563'
p962
(dp963
g4
F29617536.538843505
sg5
F28985248.771217622
sg6
F2.9000250058346189
sg7
F97.865157465758045
ssS'17812'
p964
(dp965
g4
F413142895.35172606
sg5
F132211617.452627
sg6
F6.3831844931496944
sg7
F32.001425884395189
ssS'32340'
p966
(dp967
g4
F430243012.405698
sg5
F381863746.25685132
sg6
F3.0737292164835823
sg7
F88.755362724350903
ssS'2185'
p968
(dp969
g4
F667599485.38035381
sg5
F131441237.29008827
sg6
F9.619835884097224
sg7
F19.688636700371596
ssS'32344'
p970
(dp971
g4
F341596479.36265624
sg5
F345295161.72887725
sg6
F2.8461543661212114
sg7
F101.08276360843121
ssS'16635'
p972
(dp973
g4
F595876431.81786942
sg5
F340026135.8270734
sg6
F4.110125137029641
sg7
F57.063195936402288
ssS'226'
p974
(dp975
g4
F10055738.717334734
sg5
F13567828.390238468
sg6
F2.4351695944355676
sg7
F134.92622244499418
ssS'16220'
p976
(dp977
g4
F82555842.499522373
sg5
F68757461.791661501
sg6
F3.1962738472469048
sg7
F83.286003400739688
ssS'16636'
p978
(dp979
g4
F983985880.70504403
sg5
F449221616.40108079
sg6
F4.8355289832256805
sg7
F45.653258365781149
ssS'24348'
p980
(dp981
g4
F1224860333.6555753
sg5
F464462176.63875878
sg6
F5.575430138962977
sg7
F37.91960306630056
ssS'12180'
p982
(dp983
g4
F8937638.5277676061
sg5
F79402474.072235152
sg6
F1.3940798432586154
sg7
F888.40552037930604
ssS'27443'
p984
(dp985
g4
F188098203.36203197
sg5
F631521963.43662
sg6
F1.700961779804703
sg7
F335.74056112653659
ssS'27441'
p986
(dp987
g4
F734383067.9887352
sg5
F169877733.76447889
sg6
F8.3676118974700682
sg7
F23.132033017826149
ssS'27449'
p988
(dp989
g4
F95289886.298666671
sg5
F150988427.76135337
sg6
F2.2529188295042766
sg7
F158.45168215240705
ssS'2352'
p990
(dp991
g4
F251371704.49314409
sg5
F39900489.769075125
sg6
F11.641934162529438
sg7
F15.873103080368129
ssS'11433'
p992
(dp993
g4
F81614001.257051542
sg5
F54896714.895444743
sg6
F3.6699611929628033
sg7
F67.263844499599998
ssS'2354'
p994
(dp995
g4
F241636406.86164004
sg5
F89615724.261941478
sg6
F5.6734852743258344
sg7
F37.087012435694369
ssS'27333'
p996
(dp997
g4
F191171848.83847228
sg5
F68396063.492943779
sg6
F5.8369718930175329
sg7
F35.777267368865587
ssS'607'
p998
(dp999
g4
F35580507.583556145
sg5
F14169186.343336036
sg6
F5.3666774234232317
sg7
F39.822889850746407
ssS'20869'
p1000
(dp1001
g4
F1365660.9574200001
sg5
F46628013.089013547
sg6
F1.256159745524787
sg7
F3414.3183808302583
ssS'30036'
p1002
(dp1003
g4
F329987831.15145206
sg5
F82375431.229632303
sg6
F7.8424027483165997
sg7
F24.96317241220482
ssS'603'
p1004
(dp1005
g4
F121281313.5479469
sg5
F81011585.084687769
sg6
F3.687191528010759
sg7
F66.796427837715456
ssS'31135'
p1006
(dp1007
g4
F17855004.456428573
sg5
F26714475.459034588
sg6
F2.314625842495158
sg7
F149.61897950922227
ssS'23101'
p1008
(dp1009
g4
F82262069.791370839
sg5
F38627828.424731925
sg6
F4.7347998688201098
sg7
F46.957034417803968
ssS'31131'
p1010
(dp1011
g4
F6777310.3115000008
sg5
F3225694.565756191
sg6
F4.6874854213069446
sg7
F47.59549758674482
ssS'32115'
p1012
(dp1013
g4
F16218135.971012823
sg5
F98199789.464721665
sg6
F1.481187173198995
sg7
F605.49368706882956
ssS'25243'
p1014
(dp1015
g4
F204068.60347058822
sg5
F75171811.975876108
sg6
F1.2121471557405945
sg7
F36836.539623161771
ssS'11174'
p1016
(dp1017
g4
F201466356.31710896
sg5
F37762571.616727121
sg6
F10.043848708274453
sg7
F18.743859921350175
ssS'26888'
p1018
(dp1019
g4
F504597932.669043
sg5
F260189006.74331194
sg6
F4.4196912176547833
sg7
F51.563629158577108
ssS'3102'
p1020
(dp1021
g4
F40002.400000000001
sg5
F25451963.976248465
sg6
F1.2102540457741886
sg7
F63626.092375078653
ssS'17215'
p1022
(dp1023
g4
F12217926.611288136
sg5
F18299298.172100782
sg6
F2.313478835868962
sg7
F149.77416999046361
ssS'31222'
p1024
(dp1025
g4
F26934021.452344719
sg5
F190722262.98081845
sg6
F1.4415477487142971
sg7
F708.10912257670043
ssS'464'
p1026
(dp1027
g4
F134765331.86536583
sg5
F48538930.713527046
sg6
F5.8061112088237108
sg7
F36.017371857933561
ssS'23037'
p1028
(dp1029
g4
F168132943.0291329
sg5
F189602786.59657207
sg6
F2.6763491328015232
sg7
F112.76956388238504
ssS'1296'
p1030
(dp1031
g4
F7137288.4644399583
sg5
F61508369.946673572
sg6
F1.3998377260369963
sg7
F861.78904289950037
ssS'11644'
p1032
(dp1033
g4
F422915223.69714487
sg5
F144148171.6304754
sg6
F6.0668941746874534
sg7
F34.084413034443465
ssS'11646'
p1034
(dp1035
g4
F185077759.9723677
sg5
F17891029.24786694
sg6
F18.341043516260992
sg7
F9.6667634460985958
ssS'17771'
p1036
(dp1037
g4
F248921368.33863571
sg5
F103147991.6304429
sg6
F5.2045746763772396
sg7
F41.437981929345291
ssS'5282'
p1038
(dp1039
g4
F7957465.515625
sg5
F176887479.99443734
sg6
F1.2821588220393725
sg7
F2222.9123035105499
ssS'486'
p1040
(dp1041
g4
F22650491.528306667
sg5
F97237064.178863779
sg6
F1.5934580858040459
sg7
F429.29339549804081
ssS'27193'
p1042
(dp1043
g4
F17271526.450161289
sg5
F23208655.116380293
sg6
F2.4402028225812744
sg7
F134.37523998444016
ssS'17686'
p1044
(dp1045
g4
F24542867.102448031
sg5
F67398312.278139248
sg6
F1.810766790354051
sg7
F274.61466501367562
ssS'3423'
p1046
(dp1047
g4
F2002949.3235029585
sg5
F15720095.259133616
sg6
F1.4186785483224471
sg7
F784.84737854678906
ssS'7583'
p1048
(dp1049
g4
F30266242.225357324
sg5
F68781098.42230849
sg6
F1.9364601670839598
sg7
F227.25351204875736
ssS'2003'
p1050
(dp1051
g4
F5656508.4847499998
sg5
F10632831.280809354
sg6
F2.0887484718586786
sg7
F187.97516718087789
ssS'20004'
p1052
(dp1053
g4
F50197476.787857138
sg5
F26297388.042110991
sg6
F4.3691549108184269
sg7
F52.387868325031782
ssS'28209'
p1054
(dp1055
g4
F595845962.54640877
sg5
F223532884.79549062
sg6
F5.6225119572939866
sg7
F37.515213468964347
ssS'2004'
p1056
(dp1057
g4
F5686502.9980508965
sg5
F24272535.176751707
sg6
F1.5956713833357405
sg7
F426.84467387199749
ssS'2008'
p1058
(dp1059
g4
F1000000
sg5
F18262885.74053451
sg6
F1.2983400478666611
sg7
F1826.2885740534512
ssS'28974'
p1060
(dp1061
g4
F284765544.69559133
sg5
F121295752.3452487
sg6
F5.096009503794523
sg7
F42.594953850512866
ssS'12201'
p1062
(dp1063
g4
F88519918.354361609
sg5
F72828917.319412455
sg6
F3.220733614147457
sg7
F82.274044840241302
ssS'12202'
p1064
(dp1065
g4
F177880535.98496911
sg5
F114305957.37378572
sg6
F3.7850639910820432
sg7
F64.259957808674784
ss.